
LedMatrixTest.elf:     file format elf32-avr

Sections:
Idx Name          Size      VMA       LMA       File off  Algn
  0 .data         00000094  00800100  00001bde  00001c52  2**0
                  CONTENTS, ALLOC, LOAD, DATA
  1 .text         00001bde  00000000  00000000  00000074  2**1
                  CONTENTS, ALLOC, LOAD, READONLY, CODE
  2 .bss          00000433  00800194  00001c72  00001ce6  2**0
                  ALLOC
  3 .stab         00000360  00000000  00000000  00001ce8  2**2
                  CONTENTS, READONLY, DEBUGGING
  4 .stabstr      0000005f  00000000  00000000  00002048  2**0
                  CONTENTS, READONLY, DEBUGGING
  5 .debug_aranges 00000160  00000000  00000000  000020a7  2**0
                  CONTENTS, READONLY, DEBUGGING
  6 .debug_pubnames 0000049d  00000000  00000000  00002207  2**0
                  CONTENTS, READONLY, DEBUGGING
  7 .debug_info   0000133c  00000000  00000000  000026a4  2**0
                  CONTENTS, READONLY, DEBUGGING
  8 .debug_abbrev 00000878  00000000  00000000  000039e0  2**0
                  CONTENTS, READONLY, DEBUGGING
  9 .debug_line   000016bd  00000000  00000000  00004258  2**0
                  CONTENTS, READONLY, DEBUGGING
 10 .debug_frame  00000370  00000000  00000000  00005918  2**2
                  CONTENTS, READONLY, DEBUGGING
 11 .debug_str    00000539  00000000  00000000  00005c88  2**0
                  CONTENTS, READONLY, DEBUGGING
 12 .debug_loc    000007b5  00000000  00000000  000061c1  2**0
                  CONTENTS, READONLY, DEBUGGING
Disassembly of section .text:

00000000 <__vectors>:
       0:	0c 94 ec 03 	jmp	0x7d8	; 0x7d8 <__ctors_end>
       4:	0c 94 07 04 	jmp	0x80e	; 0x80e <__bad_interrupt>
       8:	0c 94 07 04 	jmp	0x80e	; 0x80e <__bad_interrupt>
       c:	0c 94 07 04 	jmp	0x80e	; 0x80e <__bad_interrupt>
      10:	0c 94 07 04 	jmp	0x80e	; 0x80e <__bad_interrupt>
      14:	0c 94 07 04 	jmp	0x80e	; 0x80e <__bad_interrupt>
      18:	0c 94 07 04 	jmp	0x80e	; 0x80e <__bad_interrupt>
      1c:	0c 94 27 0b 	jmp	0x164e	; 0x164e <__vector_7>
      20:	0c 94 07 04 	jmp	0x80e	; 0x80e <__bad_interrupt>
      24:	0c 94 07 04 	jmp	0x80e	; 0x80e <__bad_interrupt>
      28:	0c 94 07 04 	jmp	0x80e	; 0x80e <__bad_interrupt>
      2c:	0c 94 07 04 	jmp	0x80e	; 0x80e <__bad_interrupt>
      30:	0c 94 07 04 	jmp	0x80e	; 0x80e <__bad_interrupt>
      34:	0c 94 55 06 	jmp	0xcaa	; 0xcaa <__vector_13>
      38:	0c 94 07 04 	jmp	0x80e	; 0x80e <__bad_interrupt>
      3c:	0c 94 07 04 	jmp	0x80e	; 0x80e <__bad_interrupt>
      40:	0c 94 07 04 	jmp	0x80e	; 0x80e <__bad_interrupt>
      44:	0c 94 07 04 	jmp	0x80e	; 0x80e <__bad_interrupt>
      48:	0c 94 07 04 	jmp	0x80e	; 0x80e <__bad_interrupt>
      4c:	0c 94 07 04 	jmp	0x80e	; 0x80e <__bad_interrupt>
      50:	0c 94 07 04 	jmp	0x80e	; 0x80e <__bad_interrupt>
      54:	0c 94 07 04 	jmp	0x80e	; 0x80e <__bad_interrupt>
      58:	0c 94 07 04 	jmp	0x80e	; 0x80e <__bad_interrupt>
      5c:	0c 94 07 04 	jmp	0x80e	; 0x80e <__bad_interrupt>
      60:	0c 94 07 04 	jmp	0x80e	; 0x80e <__bad_interrupt>
      64:	0c 94 07 04 	jmp	0x80e	; 0x80e <__bad_interrupt>

00000068 <letters>:
      68:	08 08 00 08 08 08 00 08 00 08 08 00 00 00 08 08     ................
      78:	00 08 00 08 08 00 08 00 08 08 00 00 00 08 08 00     ................
      88:	08 00 08 08 00 00 08 08 08 00 08 00 08 08 00 00     ................
      98:	00 08 08 08 00 00 08 08 00 08 08 08 08 00 08 08     ................
      a8:	08 08 00 08 08 08 08 08 00 00 08 08 00 00 08 08     ................
      b8:	08 00 08 00 08 08 00 08 00 08 08 00 08 00 08 08     ................
      c8:	00 00 08 08 08 00 00 00 08 08 00 08 08 08 08 00     ................
      d8:	00 00 08 08 00 08 08 08 08 00 00 00 08 08 00 00     ................
      e8:	00 08 08 00 08 08 08 08 00 00 00 08 08 00 08 08     ................
      f8:	08 08 00 08 08 08 08 08 00 00 08 08 00 08 08 08     ................
     108:	08 00 08 00 08 08 00 08 00 08 08 08 00 00 08 08     ................
     118:	00 08 00 08 08 00 08 00 08 08 00 00 00 08 08 00     ................
     128:	08 00 08 08 00 08 00 08 08 00 00 00 08 08 08 00     ................
     138:	08 08 08 08 00 08 08 08 08 00 08 08 08 00 00 00     ................
     148:	08 08 08 08 00 08 08 08 08 00 08 08 08 08 00 08     ................
     158:	08 00 08 00 08 08 00 00 00 08 08 00 08 00 08 08     ................
     168:	00 00 08 08 08 00 00 08 08 08 00 08 00 08 08 00     ................
     178:	08 00 08 08 00 08 08 08 08 00 08 08 08 08 00 08     ................
     188:	08 08 08 00 08 08 08 08 00 00 00 08 08 00 08 00     ................
     198:	08 08 00 00 00 08 08 00 08 00 08 08 00 08 00 08     ................
     1a8:	08 00 08 00 08 08 00 00 00 08 08 00 08 00 08 08     ................
     1b8:	00 08 00 08 08 00 08 00 08 08 00 08 00 08 08 00     ................
     1c8:	00 00 08 08 00 08 00 08 08 00 08 00 08 08 00 08     ................
     1d8:	00 08 08 00 00 00 08 08 00 00 00 08 08 00 08 00     ................
     1e8:	08 08 00 00 00 08 08 00 08 08 08 08 00 08 08 08     ................
     1f8:	08 00 00 00 08 08 00 08 00 08 08 00 00 00 08 08     ................
     208:	00 00 00 08 08 08 00 08 08 08 00 00 00 08 08 00     ................
     218:	08 00 08 08 00 00 08 08 08 00 08 00 08 08 00 08     ................
     228:	00 08 08 08 00 00 08 08 00 08 08 08 08 08 00 08     ................
     238:	08 08 08 08 00 08 08 00 00 08 08 08 00 00 00 08     ................
     248:	08 08 00 08 08 08 08 00 08 08 08 08 00 08 08 08     ................
     258:	08 00 08 08 08 00 08 00 08 08 00 08 00 08 08 00     ................
     268:	08 00 08 08 00 08 00 08 08 00 00 00 08 08 00 08     ................
     278:	00 08 08 00 08 00 08 08 00 08 00 08 08 00 08 00     ................
     288:	08 08 08 00 08 08 08 00 08 00 08 08 00 08 00 08     ................
     298:	08 00 08 00 08 08 00 00 00 08 08 00 08 00 08 08     ................
     2a8:	00 08 00 08 08 00 08 00 08 08 08 00 08 08 08 00     ................
     2b8:	08 00 08 08 00 08 00 08 08 00 08 00 08 08 00 08     ................
     2c8:	00 08 08 08 00 08 08 08 08 00 08 08 08 08 00 08     ................
     2d8:	08 08 00 00 00 08 08 08 08 00 08 08 08 00 08 08     ................
     2e8:	08 00 08 08 08 08 00 00 00 08 08 08 00 08 08 08     ................
     2f8:	00 08 00 08 08 08 00 00 08 08 00 08 00 08 08 08     ................
     308:	00 00 08 08 00 08 08 08 08 00 08 08 08 08 00 00     ................
     318:	00 08 08 00 08 00 08 08 00 00 00 08 08 08 08 08     ................
     328:	08 08 08 00 00 08 08 00 08 08 08 08 00 08 08 08     ................
     338:	08 08 00 00 08 08 08 08 00 08 08 08 08 00 08 08     ................
     348:	00 00 00 08 08 00 08 00 08 08 00 00 08 08 08 08     ................
     358:	08 08 08 08 00 00 00 08 08 00 00 00 08 08 00 08     ................
     368:	08 08 08 00 00 00 08 08 08 00 00 08 08 00 08 08     ................
     378:	08 08 00 00 08 08 08 00 08 08 08 08 00 08 08 08     ................
     388:	08 00 00 00 08 08 00 08 00 08 08 00 00 00 08 08     ................
     398:	00 08 00 08 08 00 00 00 08 08 00 08 08 08 08 00     ................
     3a8:	08 08 08 08 00 00 00 08 08 00 08 00 08 08 00 08     ................
     3b8:	00 08 08 08 00 08 08 08 08 08 08 08 08 08 00 08     ................
     3c8:	08 08 08 00 08 08 08 08 00 08 08 08 08 08 08 08     ................
     3d8:	08 08 00 08 08 08 08 00 08 08 08 08 00 08 08 08     ................
     3e8:	00 00 08 08 08 08 08 08 08 08 00 08 00 08 08 00     ................
     3f8:	00 08 08 08 00 08 00 08 08 00 08 00 08 08 08 00     ................
     408:	08 08 08 08 00 08 08 08 08 00 08 08 08 08 00 08     ................
     418:	08 08 08 00 08 08 08 08 08 08 08 08 00 08 00 08     ................
     428:	08 00 00 00 08 08 00 08 00 08 08 00 08 00 08 08     ................
     438:	08 08 08 08 08 08 08 08 08 08 00 00 00 08 08 00     ................
     448:	08 00 08 08 00 08 00 08 08 08 08 08 08 08 08 08     ................
     458:	08 08 08 00 00 00 08 08 00 08 00 08 08 00 00 00     ................
     468:	08 08 08 08 08 08 08 00 00 08 08 08 00 08 00 08     ................
     478:	08 00 00 08 08 08 00 08 08 08 08 08 08 08 08 08     ................
     488:	00 00 00 08 08 00 08 00 08 08 00 00 00 08 08 08     ................
     498:	08 00 08 08 08 08 08 08 08 08 08 08 08 08 00 00     ................
     4a8:	00 08 08 00 08 08 08 08 00 08 08 08 08 08 08 08     ................
     4b8:	08 08 00 00 00 08 08 00 08 08 08 08 08 00 00 08     ................
     4c8:	08 00 00 00 08 08 08 00 08 08 08 00 00 00 08 08     ................
     4d8:	08 00 08 08 08 08 00 08 08 08 08 00 00 08 08 08     ................
     4e8:	08 08 08 08 08 08 08 08 08 00 08 00 08 08 00 08     ................
     4f8:	00 08 08 00 00 00 08 08 08 08 08 08 08 00 08 00     ................
     508:	08 08 00 08 00 08 08 00 08 00 08 08 08 00 08 08     ................
     518:	08 08 08 08 08 08 00 08 00 08 08 00 08 00 08 08     ................
     528:	00 00 00 08 08 00 08 00 08 08 08 08 08 08 08 08     ................
     538:	08 08 08 08 00 08 00 08 08 08 00 08 08 08 00 08     ................
     548:	00 08 08 08 08 08 08 08 00 08 00 08 08 00 08 00     ................
     558:	08 08 08 00 08 08 08 08 00 08 08 08 08 08 08 08     ................
     568:	08 00 00 00 08 08 08 00 08 08 08 00 08 08 08 08     ................
     578:	00 00 00 08 08 08 08 00 08 08 08 08 08 08 08 08     ................
     588:	00 08 08 08 08 08 08 08 08 00 08 08 08 08 08 00     ................
     598:	08 08 08 00 08 00 08 08 00 08 00 08 08 00 08 00     ................
     5a8:	08 08 08 00 08 08 08 08 00 08 08 08 00 00 08 08     ................
     5b8:	08 08 00 08 08 08 08 00 08 08 08 00 00 00 08 08     ................
     5c8:	00 00 00 08 08 08 08 00 08 08 00 00 00 08 08 00     ................
     5d8:	08 08 08 08 00 00 00 08 08 00 00 00 08 08 08 08     ................
     5e8:	00 08 08 00 00 00 08 08 08 08 00 08 08 00 00 00     ................
     5f8:	08 08 00 08 00 08 08 00 08 00 08 08 00 00 00 08     ................
     608:	08 08 08 00 08 08 08 08 00 08 08 00 00 00 08 08     ................
     618:	00 08 08 08 08 00 00 00 08 08 08 08 00 08 08 00     ................
     628:	00 00 08 08 00 00 00 08 08 00 08 08 08 08 00 00     ................
     638:	00 08 08 00 08 00 08 08 00 00 00 08 08 00 00 00     ................
     648:	08 08 08 08 00 08 08 08 08 00 08 08 08 08 00 08     ................
     658:	08 08 08 00 08 08 00 00 00 08 08 00 08 00 08 08     ................
     668:	08 00 08 08 08 00 08 00 08 08 00 00 00 08 08 00     ................
     678:	00 00 08 08 00 08 00 08 08 00 00 00 08 08 08 08     ................
     688:	00 08 08 08 08 00 08 08 08 08 08 08 08 00 00 00     ................
     698:	08 08 08 08 08 08 08 00 00 00 08 08 08 08 08 08     ................
     6a8:	08 08 08 08 08 08 08 08 08 08 08 08 08 08 08 08     ................
     6b8:	08 08 08 08 08 08 08 08 08                          .........

000006c1 <MenuOp>:
     6c1:	20 61 29 20 4d 61 72 71 75 65 73 69 6e 61 0a 0d      a) Marquesina..
     6d1:	20 62 29 20 41 6a 75 73 74 65 20 64 65 20 52 65      b) Ajuste de Re
     6e1:	6c 6f 6a 0a 0d 20 63 29 20 53 61 6c 69 72 00        loj.. c) Salir.

000006f0 <SubMenuOp1>:
     6f0:	20 49 6e 74 72 6f 64 75 7a 63 61 20 65 6c 20 74      Introduzca el t
     700:	65 78 74 6f 20 28 63 61 64 65 6e 61 20 64 65 20     exto (cadena de 
     710:	38 20 62 79 74 65 73 29 20 79 20 70 72 65 73 69     8 bytes) y presi
     720:	6f 6e 65 20 65 6e 74 65 72 00                       one enter.

0000072a <SubMenuOp2>:
     72a:	20 50 72 65 73 69 6f 6e 65 20 6c 61 20 74 65 63      Presione la tec
     73a:	6c 61 20 65 6e 74 65 72 20 70 61 72 61 20 63 6f     la enter para co
     74a:	6e 66 69 67 75 72 61 72 20 65 6c 20 72 65 6c 6f     nfigurar el relo
     75a:	6a 20 6f 20 65 73 63 61 70 65 20 70 61 72 61 20     j o escape para 
     76a:	72 65 67 72 65 73 61 72 20 61 6c 20 6d 65 6e 75     regresar al menu
     77a:	20 70 72 69 6e 63 69 70 61 6c 00                     principal.

00000785 <SubMenuOp2a>:
     785:	20 43 6f 6e 66 69 67 75 72 65 20 65 6e 20 62 61      Configure en ba
     795:	73 65 20 61 6c 20 66 6f 72 6d 61 74 6f 20 64 65     se al formato de
     7a5:	20 32 34 20 68 72 73 2c 20 65 6e 20 63 61 73 6f      24 hrs, en caso
     7b5:	20 64 65 20 75 6e 20 76 61 6c 6f 72 20 69 6e 76      de un valor inv
     7c5:	61 6c 69 64 6f 20 65 73 74 65 20 73 65 72 61 20     alido este sera 
     7d5:	30 00 00                                            0..

000007d8 <__ctors_end>:
     7d8:	11 24       	eor	r1, r1
     7da:	1f be       	out	0x3f, r1	; 63
     7dc:	cf ef       	ldi	r28, 0xFF	; 255
     7de:	cd bf       	out	0x3d, r28	; 61

000007e0 <__do_copy_data>:
     7e0:	11 e0       	ldi	r17, 0x01	; 1
     7e2:	a0 e0       	ldi	r26, 0x00	; 0
     7e4:	b1 e0       	ldi	r27, 0x01	; 1
     7e6:	ee ed       	ldi	r30, 0xDE	; 222
     7e8:	fb e1       	ldi	r31, 0x1B	; 27
     7ea:	02 c0       	rjmp	.+4      	; 0x7f0 <.do_copy_data_start>

000007ec <.do_copy_data_loop>:
     7ec:	05 90       	lpm	r0, Z+
     7ee:	0d 92       	st	X+, r0

000007f0 <.do_copy_data_start>:
     7f0:	a4 39       	cpi	r26, 0x94	; 148
     7f2:	b1 07       	cpc	r27, r17
     7f4:	d9 f7       	brne	.-10     	; 0x7ec <.do_copy_data_loop>

000007f6 <__do_clear_bss>:
     7f6:	15 e0       	ldi	r17, 0x05	; 5
     7f8:	a4 e9       	ldi	r26, 0x94	; 148
     7fa:	b1 e0       	ldi	r27, 0x01	; 1
     7fc:	01 c0       	rjmp	.+2      	; 0x800 <.do_clear_bss_start>

000007fe <.do_clear_bss_loop>:
     7fe:	1d 92       	st	X+, r1

00000800 <.do_clear_bss_start>:
     800:	a7 3c       	cpi	r26, 0xC7	; 199
     802:	b1 07       	cpc	r27, r17
     804:	e1 f7       	brne	.-8      	; 0x7fe <.do_clear_bss_loop>
     806:	0e 94 3d 04 	call	0x87a	; 0x87a <main>
     80a:	0c 94 ee 0d 	jmp	0x1bdc	; 0x1bdc <_exit>

0000080e <__bad_interrupt>:
     80e:	0c 94 00 00 	jmp	0	; 0x0 <__heap_end>

00000812 <button_pressed>:
     812:	83 b1       	in	r24, 0x03	; 3
     814:	90 e0       	ldi	r25, 0x00	; 0
     816:	80 95       	com	r24
     818:	90 95       	com	r25
     81a:	81 70       	andi	r24, 0x01	; 1
     81c:	90 70       	andi	r25, 0x00	; 0
     81e:	08 95       	ret

00000820 <button_pressed2>:
     820:	83 b1       	in	r24, 0x03	; 3
     822:	90 e0       	ldi	r25, 0x00	; 0
     824:	24 e0       	ldi	r18, 0x04	; 4
     826:	96 95       	lsr	r25
     828:	87 95       	ror	r24
     82a:	2a 95       	dec	r18
     82c:	e1 f7       	brne	.-8      	; 0x826 <button_pressed2+0x6>
     82e:	80 95       	com	r24
     830:	90 95       	com	r25
     832:	81 70       	andi	r24, 0x01	; 1
     834:	90 70       	andi	r25, 0x00	; 0
     836:	08 95       	ret

00000838 <button_pressed3>:
     838:	83 b1       	in	r24, 0x03	; 3
     83a:	90 e0       	ldi	r25, 0x00	; 0
     83c:	35 e0       	ldi	r19, 0x05	; 5
     83e:	96 95       	lsr	r25
     840:	87 95       	ror	r24
     842:	3a 95       	dec	r19
     844:	e1 f7       	brne	.-8      	; 0x83e <button_pressed3+0x6>
     846:	80 95       	com	r24
     848:	90 95       	com	r25
     84a:	81 70       	andi	r24, 0x01	; 1
     84c:	90 70       	andi	r25, 0x00	; 0
     84e:	08 95       	ret

00000850 <SecondPassed>:
     850:	0f 93       	push	r16
     852:	1f 93       	push	r17
     854:	08 2f       	mov	r16, r24
     856:	16 2f       	mov	r17, r22
     858:	2a 9a       	sbi	0x05, 2	; 5
     85a:	47 e0       	ldi	r20, 0x07	; 7
     85c:	0e 94 0a 07 	call	0xe14	; 0xe14 <paintPixel>
     860:	2a 98       	cbi	0x05, 2	; 5
     862:	0e 94 41 0a 	call	0x1482	; 0x1482 <Delay_20mS>
     866:	2a 9a       	sbi	0x05, 2	; 5
     868:	48 e0       	ldi	r20, 0x08	; 8
     86a:	61 2f       	mov	r22, r17
     86c:	80 2f       	mov	r24, r16
     86e:	0e 94 0a 07 	call	0xe14	; 0xe14 <paintPixel>
     872:	2a 98       	cbi	0x05, 2	; 5
     874:	1f 91       	pop	r17
     876:	0f 91       	pop	r16
     878:	08 95       	ret

0000087a <main>:
     87a:	cf 92       	push	r12
     87c:	df 92       	push	r13
     87e:	ef 92       	push	r14
     880:	ff 92       	push	r15
     882:	0f 93       	push	r16
     884:	cf 93       	push	r28
     886:	df 93       	push	r29
     888:	cd b7       	in	r28, 0x3d	; 61
     88a:	de b7       	in	r29, 0x3e	; 62
     88c:	23 97       	sbiw	r28, 0x03	; 3
     88e:	0f b6       	in	r0, 0x3f	; 63
     890:	f8 94       	cli
     892:	de bf       	out	0x3e, r29	; 62
     894:	0f be       	out	0x3f, r0	; 63
     896:	cd bf       	out	0x3d, r28	; 61
     898:	0e 94 39 0c 	call	0x1872	; 0x1872 <PortConfig>
     89c:	0e 94 0a 0b 	call	0x1614	; 0x1614 <Timer2_OneSecIni>
     8a0:	83 e3       	ldi	r24, 0x33	; 51
     8a2:	0e 94 66 0a 	call	0x14cc	; 0x14cc <UART0_Init>
     8a6:	15 c0       	rjmp	.+42     	; 0x8d2 <main+0x58>
     8a8:	0e 94 1f 0b 	call	0x163e	; 0x163e <Timer2_Flag>
     8ac:	88 23       	and	r24, r24
     8ae:	89 f0       	breq	.+34     	; 0x8d2 <main+0x58>
     8b0:	80 91 a1 01 	lds	r24, 0x01A1
     8b4:	8f 5f       	subi	r24, 0xFF	; 255
     8b6:	80 93 a1 01 	sts	0x01A1, r24
     8ba:	0e 94 41 0a 	call	0x1482	; 0x1482 <Delay_20mS>
     8be:	0e 94 a8 0a 	call	0x1550	; 0x1550 <UART0_kbhit>
     8c2:	88 23       	and	r24, r24
     8c4:	31 f0       	breq	.+12     	; 0x8d2 <main+0x58>
     8c6:	85 e0       	ldi	r24, 0x05	; 5
     8c8:	80 93 a1 01 	sts	0x01A1, r24
     8cc:	81 e0       	ldi	r24, 0x01	; 1
     8ce:	80 93 9c 01 	sts	0x019C, r24
     8d2:	80 91 a1 01 	lds	r24, 0x01A1
     8d6:	85 30       	cpi	r24, 0x05	; 5
     8d8:	38 f3       	brcs	.-50     	; 0x8a8 <main+0x2e>
     8da:	0e 94 86 0c 	call	0x190c	; 0x190c <clrscr>
     8de:	80 91 9c 01 	lds	r24, 0x019C
     8e2:	81 30       	cpi	r24, 0x01	; 1
     8e4:	19 f4       	brne	.+6      	; 0x8ec <main+0x72>
     8e6:	0e 94 37 0d 	call	0x1a6e	; 0x1a6e <menu>
     8ea:	05 c0       	rjmp	.+10     	; 0x8f6 <main+0x7c>
     8ec:	40 e0       	ldi	r20, 0x00	; 0
     8ee:	60 e0       	ldi	r22, 0x00	; 0
     8f0:	80 e0       	ldi	r24, 0x00	; 0
     8f2:	0e 94 51 0b 	call	0x16a2	; 0x16a2 <Clock_Ini>
     8f6:	0e 94 d7 0b 	call	0x17ae	; 0x17ae <CurrentTime>
     8fa:	69 83       	std	Y+1, r22	; 0x01
     8fc:	7a 83       	std	Y+2, r23	; 0x02
     8fe:	8b 83       	std	Y+3, r24	; 0x03
     900:	a7 eb       	ldi	r26, 0xB7	; 183
     902:	b5 e0       	ldi	r27, 0x05	; 5
     904:	fe 01       	movw	r30, r28
     906:	31 96       	adiw	r30, 0x01	; 1
     908:	83 e0       	ldi	r24, 0x03	; 3
     90a:	01 90       	ld	r0, Z+
     90c:	0d 92       	st	X+, r0
     90e:	81 50       	subi	r24, 0x01	; 1
     910:	e1 f7       	brne	.-8      	; 0x90a <__stack+0xb>
     912:	0e 94 31 06 	call	0xc62	; 0xc62 <Timer1_Ini>
     916:	85 e1       	ldi	r24, 0x15	; 21
     918:	9f e0       	ldi	r25, 0x0F	; 15
     91a:	90 93 9e 01 	sts	0x019E, r25
     91e:	80 93 9d 01 	sts	0x019D, r24
     922:	83 e0       	ldi	r24, 0x03	; 3
     924:	80 93 b4 05 	sts	0x05B4, r24
     928:	1b c0       	rjmp	.+54     	; 0x960 <__stack+0x61>
     92a:	00 91 9f 01 	lds	r16, 0x019F
     92e:	80 91 9d 01 	lds	r24, 0x019D
     932:	90 91 9e 01 	lds	r25, 0x019E
     936:	0e 94 32 0c 	call	0x1864	; 0x1864 <EEPROM_Read>
     93a:	e0 2f       	mov	r30, r16
     93c:	f0 e0       	ldi	r31, 0x00	; 0
     93e:	ec 56       	subi	r30, 0x6C	; 108
     940:	fe 4f       	sbci	r31, 0xFE	; 254
     942:	80 83       	st	Z, r24
     944:	80 91 9f 01 	lds	r24, 0x019F
     948:	8f 5f       	subi	r24, 0xFF	; 255
     94a:	80 93 9f 01 	sts	0x019F, r24
     94e:	80 91 9d 01 	lds	r24, 0x019D
     952:	90 91 9e 01 	lds	r25, 0x019E
     956:	01 96       	adiw	r24, 0x01	; 1
     958:	90 93 9e 01 	sts	0x019E, r25
     95c:	80 93 9d 01 	sts	0x019D, r24
     960:	80 91 9f 01 	lds	r24, 0x019F
     964:	88 30       	cpi	r24, 0x08	; 8
     966:	08 f3       	brcs	.-62     	; 0x92a <__stack+0x2b>
     968:	e7 eb       	ldi	r30, 0xB7	; 183
     96a:	ee 2e       	mov	r14, r30
     96c:	e5 e0       	ldi	r30, 0x05	; 5
     96e:	fe 2e       	mov	r15, r30
     970:	6e 01       	movw	r12, r28
     972:	08 94       	sec
     974:	c1 1c       	adc	r12, r1
     976:	d1 1c       	adc	r13, r1
     978:	80 91 bb 05 	lds	r24, 0x05BB
     97c:	88 23       	and	r24, r24
     97e:	79 f5       	brne	.+94     	; 0x9de <__stack+0xdf>
     980:	18 99       	sbic	0x03, 0	; 3
     982:	2d c0       	rjmp	.+90     	; 0x9de <__stack+0xdf>
     984:	80 91 b4 05 	lds	r24, 0x05B4
     988:	8f 5f       	subi	r24, 0xFF	; 255
     98a:	80 93 b4 05 	sts	0x05B4, r24
     98e:	82 30       	cpi	r24, 0x02	; 2
     990:	59 f0       	breq	.+22     	; 0x9a8 <__stack+0xa9>
     992:	83 30       	cpi	r24, 0x03	; 3
     994:	89 f0       	breq	.+34     	; 0x9b8 <__stack+0xb9>
     996:	81 30       	cpi	r24, 0x01	; 1
     998:	f1 f4       	brne	.+60     	; 0x9d6 <__stack+0xd7>
     99a:	0e 94 bb 06 	call	0xd76	; 0xd76 <CleanMatrix>
     99e:	8f e0       	ldi	r24, 0x0F	; 15
     9a0:	80 93 91 01 	sts	0x0191, r24
     9a4:	8e e0       	ldi	r24, 0x0E	; 14
     9a6:	05 c0       	rjmp	.+10     	; 0x9b2 <__stack+0xb3>
     9a8:	0e 94 bb 06 	call	0xd76	; 0xd76 <CleanMatrix>
     9ac:	8c e0       	ldi	r24, 0x0C	; 12
     9ae:	80 93 91 01 	sts	0x0191, r24
     9b2:	80 93 92 01 	sts	0x0192, r24
     9b6:	13 c0       	rjmp	.+38     	; 0x9de <__stack+0xdf>
     9b8:	0e 94 bb 06 	call	0xd76	; 0xd76 <CleanMatrix>
     9bc:	8f e0       	ldi	r24, 0x0F	; 15
     9be:	80 93 91 01 	sts	0x0191, r24
     9c2:	8e e0       	ldi	r24, 0x0E	; 14
     9c4:	80 93 92 01 	sts	0x0192, r24
     9c8:	10 92 ba 05 	sts	0x05BA, r1
     9cc:	10 92 b3 05 	sts	0x05B3, r1
     9d0:	10 92 b5 05 	sts	0x05B5, r1
     9d4:	04 c0       	rjmp	.+8      	; 0x9de <__stack+0xdf>
     9d6:	0e 94 bb 06 	call	0xd76	; 0xd76 <CleanMatrix>
     9da:	10 92 b4 05 	sts	0x05B4, r1
     9de:	80 91 bb 05 	lds	r24, 0x05BB
     9e2:	81 30       	cpi	r24, 0x01	; 1
     9e4:	f1 f4       	brne	.+60     	; 0xa22 <__stack+0x123>
     9e6:	18 99       	sbic	0x03, 0	; 3
     9e8:	0d c0       	rjmp	.+26     	; 0xa04 <__stack+0x105>
     9ea:	80 91 b7 05 	lds	r24, 0x05B7
     9ee:	40 91 b9 05 	lds	r20, 0x05B9
     9f2:	60 91 b8 05 	lds	r22, 0x05B8
     9f6:	8b 30       	cpi	r24, 0x0B	; 11
     9f8:	10 f0       	brcs	.+4      	; 0x9fe <__stack+0xff>
     9fa:	80 e0       	ldi	r24, 0x00	; 0
     9fc:	01 c0       	rjmp	.+2      	; 0xa00 <__stack+0x101>
     9fe:	8f 5f       	subi	r24, 0xFF	; 255
     a00:	0e 94 51 0b 	call	0x16a2	; 0x16a2 <Clock_Ini>
     a04:	1c 99       	sbic	0x03, 4	; 3
     a06:	0d c0       	rjmp	.+26     	; 0xa22 <__stack+0x123>
     a08:	60 91 b8 05 	lds	r22, 0x05B8
     a0c:	40 91 b9 05 	lds	r20, 0x05B9
     a10:	6b 33       	cpi	r22, 0x3B	; 59
     a12:	10 f0       	brcs	.+4      	; 0xa18 <__stack+0x119>
     a14:	80 e0       	ldi	r24, 0x00	; 0
     a16:	03 c0       	rjmp	.+6      	; 0xa1e <__stack+0x11f>
     a18:	6f 5f       	subi	r22, 0xFF	; 255
     a1a:	80 91 b7 05 	lds	r24, 0x05B7
     a1e:	0e 94 51 0b 	call	0x16a2	; 0x16a2 <Clock_Ini>
     a22:	1d 99       	sbic	0x03, 5	; 3
     a24:	0a c0       	rjmp	.+20     	; 0xa3a <__stack+0x13b>
     a26:	80 91 bb 05 	lds	r24, 0x05BB
     a2a:	81 30       	cpi	r24, 0x01	; 1
     a2c:	19 f4       	brne	.+6      	; 0xa34 <__stack+0x135>
     a2e:	10 92 bb 05 	sts	0x05BB, r1
     a32:	03 c0       	rjmp	.+6      	; 0xa3a <__stack+0x13b>
     a34:	81 e0       	ldi	r24, 0x01	; 1
     a36:	80 93 bb 05 	sts	0x05BB, r24
     a3a:	80 91 b4 05 	lds	r24, 0x05B4
     a3e:	81 30       	cpi	r24, 0x01	; 1
     a40:	59 f4       	brne	.+22     	; 0xa58 <__stack+0x159>
     a42:	80 91 90 01 	lds	r24, 0x0190
     a46:	2e e0       	ldi	r18, 0x0E	; 14
     a48:	30 e0       	ldi	r19, 0x00	; 0
     a4a:	41 e0       	ldi	r20, 0x01	; 1
     a4c:	50 e0       	ldi	r21, 0x00	; 0
     a4e:	6f e0       	ldi	r22, 0x0F	; 15
     a50:	70 e0       	ldi	r23, 0x00	; 0
     a52:	90 e0       	ldi	r25, 0x00	; 0
     a54:	0e 94 2d 09 	call	0x125a	; 0x125a <drawCircle>
     a58:	80 91 b4 05 	lds	r24, 0x05B4
     a5c:	82 30       	cpi	r24, 0x02	; 2
     a5e:	61 f5       	brne	.+88     	; 0xab8 <__stack+0x1b9>
     a60:	20 91 92 01 	lds	r18, 0x0192
     a64:	30 e0       	ldi	r19, 0x00	; 0
     a66:	60 91 91 01 	lds	r22, 0x0191
     a6a:	70 e0       	ldi	r23, 0x00	; 0
     a6c:	80 91 90 01 	lds	r24, 0x0190
     a70:	41 e0       	ldi	r20, 0x01	; 1
     a72:	50 e0       	ldi	r21, 0x00	; 0
     a74:	90 e0       	ldi	r25, 0x00	; 0
     a76:	0e 94 2d 09 	call	0x125a	; 0x125a <drawCircle>
     a7a:	10 92 9f 01 	sts	0x019F, r1
     a7e:	18 c0       	rjmp	.+48     	; 0xab0 <__stack+0x1b1>
     a80:	e0 91 9f 01 	lds	r30, 0x019F
     a84:	f0 e0       	ldi	r31, 0x00	; 0
     a86:	ec 56       	subi	r30, 0x6C	; 108
     a88:	fe 4f       	sbci	r31, 0xFE	; 254
     a8a:	40 81       	ld	r20, Z
     a8c:	50 e0       	ldi	r21, 0x00	; 0
     a8e:	80 91 a0 01 	lds	r24, 0x01A0
     a92:	90 91 9f 01 	lds	r25, 0x019F
     a96:	80 5e       	subi	r24, 0xE0	; 224
     a98:	99 0f       	add	r25, r25
     a9a:	99 0f       	add	r25, r25
     a9c:	26 e0       	ldi	r18, 0x06	; 6
     a9e:	69 e1       	ldi	r22, 0x19	; 25
     aa0:	89 1b       	sub	r24, r25
     aa2:	0e 94 1d 07 	call	0xe3a	; 0xe3a <drawLetter>
     aa6:	80 91 9f 01 	lds	r24, 0x019F
     aaa:	8f 5f       	subi	r24, 0xFF	; 255
     aac:	80 93 9f 01 	sts	0x019F, r24
     ab0:	80 91 9f 01 	lds	r24, 0x019F
     ab4:	88 30       	cpi	r24, 0x08	; 8
     ab6:	20 f3       	brcs	.-56     	; 0xa80 <__stack+0x181>
     ab8:	80 91 b4 05 	lds	r24, 0x05B4
     abc:	83 30       	cpi	r24, 0x03	; 3
     abe:	01 f1       	breq	.+64     	; 0xb00 <__stack+0x201>
     ac0:	e0 91 b8 05 	lds	r30, 0x05B8
     ac4:	f0 e0       	ldi	r31, 0x00	; 0
     ac6:	ee 0f       	add	r30, r30
     ac8:	ff 1f       	adc	r31, r31
     aca:	e0 50       	subi	r30, 0x00	; 0
     acc:	ff 4f       	sbci	r31, 0xFF	; 255
     ace:	21 81       	ldd	r18, Z+1	; 0x01
     ad0:	40 81       	ld	r20, Z
     ad2:	60 91 91 01 	lds	r22, 0x0191
     ad6:	02 e0       	ldi	r16, 0x02	; 2
     ad8:	80 91 90 01 	lds	r24, 0x0190
     adc:	0e 94 40 08 	call	0x1080	; 0x1080 <MinuteHand>
     ae0:	e0 91 b7 05 	lds	r30, 0x05B7
     ae4:	f0 e0       	ldi	r31, 0x00	; 0
     ae6:	ee 0f       	add	r30, r30
     ae8:	ff 1f       	adc	r31, r31
     aea:	e8 58       	subi	r30, 0x88	; 136
     aec:	fe 4f       	sbci	r31, 0xFE	; 254
     aee:	21 81       	ldd	r18, Z+1	; 0x01
     af0:	40 81       	ld	r20, Z
     af2:	60 91 91 01 	lds	r22, 0x0191
     af6:	04 e0       	ldi	r16, 0x04	; 4
     af8:	80 91 90 01 	lds	r24, 0x0190
     afc:	0e 94 75 08 	call	0x10ea	; 0x10ea <HourHand>
     b00:	0e 94 1f 0b 	call	0x163e	; 0x163e <Timer2_Flag>
     b04:	88 23       	and	r24, r24
     b06:	09 f4       	brne	.+2      	; 0xb0a <__stack+0x20b>
     b08:	37 cf       	rjmp	.-402    	; 0x978 <__stack+0x79>
     b0a:	60 91 91 01 	lds	r22, 0x0191
     b0e:	80 91 90 01 	lds	r24, 0x0190
     b12:	0e 94 28 04 	call	0x850	; 0x850 <SecondPassed>
     b16:	0e 94 58 0b 	call	0x16b0	; 0x16b0 <Clock_Update>
     b1a:	6a e0       	ldi	r22, 0x0A	; 10
     b1c:	86 e0       	ldi	r24, 0x06	; 6
     b1e:	0e 94 55 0c 	call	0x18aa	; 0x18aa <gotoxy>
     b22:	0e 94 f7 0b 	call	0x17ee	; 0x17ee <Clock_Display>
     b26:	0e 94 d7 0b 	call	0x17ae	; 0x17ae <CurrentTime>
     b2a:	69 83       	std	Y+1, r22	; 0x01
     b2c:	7a 83       	std	Y+2, r23	; 0x02
     b2e:	8b 83       	std	Y+3, r24	; 0x03
     b30:	d7 01       	movw	r26, r14
     b32:	f6 01       	movw	r30, r12
     b34:	83 e0       	ldi	r24, 0x03	; 3
     b36:	01 90       	ld	r0, Z+
     b38:	0d 92       	st	X+, r0
     b3a:	81 50       	subi	r24, 0x01	; 1
     b3c:	e1 f7       	brne	.-8      	; 0xb36 <__stack+0x237>
     b3e:	80 91 a0 01 	lds	r24, 0x01A0
     b42:	8f 5f       	subi	r24, 0xFF	; 255
     b44:	80 93 a0 01 	sts	0x01A0, r24
     b48:	80 91 b4 05 	lds	r24, 0x05B4
     b4c:	83 30       	cpi	r24, 0x03	; 3
     b4e:	09 f0       	breq	.+2      	; 0xb52 <__stack+0x253>
     b50:	13 cf       	rjmp	.-474    	; 0x978 <__stack+0x79>
     b52:	90 91 ba 05 	lds	r25, 0x05BA
     b56:	9f 5f       	subi	r25, 0xFF	; 255
     b58:	90 93 ba 05 	sts	0x05BA, r25
     b5c:	80 91 b3 05 	lds	r24, 0x05B3
     b60:	8f 5f       	subi	r24, 0xFF	; 255
     b62:	80 93 b3 05 	sts	0x05B3, r24
     b66:	8c 33       	cpi	r24, 0x3C	; 60
     b68:	39 f4       	brne	.+14     	; 0xb78 <__stack+0x279>
     b6a:	80 91 b5 05 	lds	r24, 0x05B5
     b6e:	8f 5f       	subi	r24, 0xFF	; 255
     b70:	80 93 b5 05 	sts	0x05B5, r24
     b74:	10 92 b3 05 	sts	0x05B3, r1
     b78:	80 91 b5 05 	lds	r24, 0x05B5
     b7c:	88 23       	and	r24, r24
     b7e:	09 f5       	brne	.+66     	; 0xbc2 <__stack+0x2c3>
     b80:	9f 31       	cpi	r25, 0x1F	; 31
     b82:	f8 f4       	brcc	.+62     	; 0xbc2 <__stack+0x2c3>
     b84:	10 92 9f 01 	sts	0x019F, r1
     b88:	18 c0       	rjmp	.+48     	; 0xbba <__stack+0x2bb>
     b8a:	e0 91 9f 01 	lds	r30, 0x019F
     b8e:	f0 e0       	ldi	r31, 0x00	; 0
     b90:	ec 56       	subi	r30, 0x6C	; 108
     b92:	fe 4f       	sbci	r31, 0xFE	; 254
     b94:	40 81       	ld	r20, Z
     b96:	50 e0       	ldi	r21, 0x00	; 0
     b98:	90 91 9f 01 	lds	r25, 0x019F
     b9c:	80 91 ba 05 	lds	r24, 0x05BA
     ba0:	81 5e       	subi	r24, 0xE1	; 225
     ba2:	99 0f       	add	r25, r25
     ba4:	99 0f       	add	r25, r25
     ba6:	26 e0       	ldi	r18, 0x06	; 6
     ba8:	6a e0       	ldi	r22, 0x0A	; 10
     baa:	89 1b       	sub	r24, r25
     bac:	0e 94 1d 07 	call	0xe3a	; 0xe3a <drawLetter>
     bb0:	80 91 9f 01 	lds	r24, 0x019F
     bb4:	8f 5f       	subi	r24, 0xFF	; 255
     bb6:	80 93 9f 01 	sts	0x019F, r24
     bba:	80 91 9f 01 	lds	r24, 0x019F
     bbe:	88 30       	cpi	r24, 0x08	; 8
     bc0:	20 f3       	brcs	.-56     	; 0xb8a <__stack+0x28b>
     bc2:	80 91 ba 05 	lds	r24, 0x05BA
     bc6:	8e 31       	cpi	r24, 0x1E	; 30
     bc8:	29 f4       	brne	.+10     	; 0xbd4 <__stack+0x2d5>
     bca:	81 e0       	ldi	r24, 0x01	; 1
     bcc:	80 93 b6 05 	sts	0x05B6, r24
     bd0:	0e 94 bb 06 	call	0xd76	; 0xd76 <CleanMatrix>
     bd4:	80 91 b5 05 	lds	r24, 0x05B5
     bd8:	85 30       	cpi	r24, 0x05	; 5
     bda:	a8 f5       	brcc	.+106    	; 0xc46 <__stack+0x347>
     bdc:	80 91 ba 05 	lds	r24, 0x05BA
     be0:	8e 31       	cpi	r24, 0x1E	; 30
     be2:	88 f1       	brcs	.+98     	; 0xc46 <__stack+0x347>
     be4:	80 91 b6 05 	lds	r24, 0x05B6
     be8:	81 30       	cpi	r24, 0x01	; 1
     bea:	69 f5       	brne	.+90     	; 0xc46 <__stack+0x347>
     bec:	20 91 92 01 	lds	r18, 0x0192
     bf0:	30 e0       	ldi	r19, 0x00	; 0
     bf2:	60 91 91 01 	lds	r22, 0x0191
     bf6:	70 e0       	ldi	r23, 0x00	; 0
     bf8:	80 91 90 01 	lds	r24, 0x0190
     bfc:	41 e0       	ldi	r20, 0x01	; 1
     bfe:	50 e0       	ldi	r21, 0x00	; 0
     c00:	90 e0       	ldi	r25, 0x00	; 0
     c02:	0e 94 2d 09 	call	0x125a	; 0x125a <drawCircle>
     c06:	e0 91 b8 05 	lds	r30, 0x05B8
     c0a:	f0 e0       	ldi	r31, 0x00	; 0
     c0c:	ee 0f       	add	r30, r30
     c0e:	ff 1f       	adc	r31, r31
     c10:	e0 50       	subi	r30, 0x00	; 0
     c12:	ff 4f       	sbci	r31, 0xFF	; 255
     c14:	21 81       	ldd	r18, Z+1	; 0x01
     c16:	40 81       	ld	r20, Z
     c18:	60 91 91 01 	lds	r22, 0x0191
     c1c:	02 e0       	ldi	r16, 0x02	; 2
     c1e:	80 91 90 01 	lds	r24, 0x0190
     c22:	0e 94 40 08 	call	0x1080	; 0x1080 <MinuteHand>
     c26:	e0 91 b7 05 	lds	r30, 0x05B7
     c2a:	f0 e0       	ldi	r31, 0x00	; 0
     c2c:	ee 0f       	add	r30, r30
     c2e:	ff 1f       	adc	r31, r31
     c30:	e8 58       	subi	r30, 0x88	; 136
     c32:	fe 4f       	sbci	r31, 0xFE	; 254
     c34:	21 81       	ldd	r18, Z+1	; 0x01
     c36:	40 81       	ld	r20, Z
     c38:	60 91 91 01 	lds	r22, 0x0191
     c3c:	04 e0       	ldi	r16, 0x04	; 4
     c3e:	80 91 90 01 	lds	r24, 0x0190
     c42:	0e 94 75 08 	call	0x10ea	; 0x10ea <HourHand>
     c46:	80 91 b5 05 	lds	r24, 0x05B5
     c4a:	85 30       	cpi	r24, 0x05	; 5
     c4c:	08 f4       	brcc	.+2      	; 0xc50 <__stack+0x351>
     c4e:	94 ce       	rjmp	.-728    	; 0x978 <__stack+0x79>
     c50:	10 92 b5 05 	sts	0x05B5, r1
     c54:	10 92 b6 05 	sts	0x05B6, r1
     c58:	10 92 ba 05 	sts	0x05BA, r1
     c5c:	0e 94 bb 06 	call	0xd76	; 0xd76 <CleanMatrix>
     c60:	8b ce       	rjmp	.-746    	; 0x978 <__stack+0x79>

00000c62 <Timer1_Ini>:
     c62:	e0 e8       	ldi	r30, 0x80	; 128
     c64:	f0 e0       	ldi	r31, 0x00	; 0
     c66:	80 81       	ld	r24, Z
     c68:	82 60       	ori	r24, 0x02	; 2
     c6a:	80 83       	st	Z, r24
     c6c:	e1 e8       	ldi	r30, 0x81	; 129
     c6e:	f0 e0       	ldi	r31, 0x00	; 0
     c70:	80 81       	ld	r24, Z
     c72:	89 61       	ori	r24, 0x19	; 25
     c74:	80 83       	st	Z, r24
     c76:	84 e6       	ldi	r24, 0x64	; 100
     c78:	90 e0       	ldi	r25, 0x00	; 0
     c7a:	90 93 87 00 	sts	0x0087, r25
     c7e:	80 93 86 00 	sts	0x0086, r24
     c82:	ef e6       	ldi	r30, 0x6F	; 111
     c84:	f0 e0       	ldi	r31, 0x00	; 0
     c86:	80 81       	ld	r24, Z
     c88:	81 60       	ori	r24, 0x01	; 1
     c8a:	80 83       	st	Z, r24
     c8c:	78 94       	sei
     c8e:	08 95       	ret

00000c90 <Timer1_Flag>:
     c90:	80 91 a2 01 	lds	r24, 0x01A2
     c94:	88 23       	and	r24, r24
     c96:	19 f4       	brne	.+6      	; 0xc9e <Timer1_Flag+0xe>
     c98:	80 e0       	ldi	r24, 0x00	; 0
     c9a:	90 e0       	ldi	r25, 0x00	; 0
     c9c:	08 95       	ret
     c9e:	10 92 a2 01 	sts	0x01A2, r1
     ca2:	2b 9a       	sbi	0x05, 3	; 5
     ca4:	81 e0       	ldi	r24, 0x01	; 1
     ca6:	90 e0       	ldi	r25, 0x00	; 0
     ca8:	08 95       	ret

00000caa <__vector_13>:
     caa:	1f 92       	push	r1
     cac:	0f 92       	push	r0
     cae:	0f b6       	in	r0, 0x3f	; 63
     cb0:	0f 92       	push	r0
     cb2:	11 24       	eor	r1, r1
     cb4:	2f 93       	push	r18
     cb6:	3f 93       	push	r19
     cb8:	4f 93       	push	r20
     cba:	5f 93       	push	r21
     cbc:	6f 93       	push	r22
     cbe:	7f 93       	push	r23
     cc0:	8f 93       	push	r24
     cc2:	9f 93       	push	r25
     cc4:	af 93       	push	r26
     cc6:	bf 93       	push	r27
     cc8:	ef 93       	push	r30
     cca:	ff 93       	push	r31
     ccc:	0e 94 04 0a 	call	0x1408	; 0x1408 <Display>
     cd0:	86 b3       	in	r24, 0x16	; 22
     cd2:	86 bb       	out	0x16, r24	; 22
     cd4:	ff 91       	pop	r31
     cd6:	ef 91       	pop	r30
     cd8:	bf 91       	pop	r27
     cda:	af 91       	pop	r26
     cdc:	9f 91       	pop	r25
     cde:	8f 91       	pop	r24
     ce0:	7f 91       	pop	r23
     ce2:	6f 91       	pop	r22
     ce4:	5f 91       	pop	r21
     ce6:	4f 91       	pop	r20
     ce8:	3f 91       	pop	r19
     cea:	2f 91       	pop	r18
     cec:	0f 90       	pop	r0
     cee:	0f be       	out	0x3f, r0	; 63
     cf0:	0f 90       	pop	r0
     cf2:	1f 90       	pop	r1
     cf4:	18 95       	reti

00000cf6 <setColorPixel>:
     cf6:	84 30       	cpi	r24, 0x04	; 4
     cf8:	f9 f0       	breq	.+62     	; 0xd38 <setColorPixel+0x42>
     cfa:	85 30       	cpi	r24, 0x05	; 5
     cfc:	38 f4       	brcc	.+14     	; 0xd0c <setColorPixel+0x16>
     cfe:	82 30       	cpi	r24, 0x02	; 2
     d00:	89 f0       	breq	.+34     	; 0xd24 <setColorPixel+0x2e>
     d02:	83 30       	cpi	r24, 0x03	; 3
     d04:	a0 f4       	brcc	.+40     	; 0xd2e <setColorPixel+0x38>
     d06:	81 30       	cpi	r24, 0x01	; 1
     d08:	79 f5       	brne	.+94     	; 0xd68 <setColorPixel+0x72>
     d0a:	07 c0       	rjmp	.+14     	; 0xd1a <setColorPixel+0x24>
     d0c:	86 30       	cpi	r24, 0x06	; 6
     d0e:	01 f1       	breq	.+64     	; 0xd50 <setColorPixel+0x5a>
     d10:	86 30       	cpi	r24, 0x06	; 6
     d12:	c0 f0       	brcs	.+48     	; 0xd44 <setColorPixel+0x4e>
     d14:	87 30       	cpi	r24, 0x07	; 7
     d16:	41 f5       	brne	.+80     	; 0xd68 <setColorPixel+0x72>
     d18:	20 c0       	rjmp	.+64     	; 0xd5a <setColorPixel+0x64>
     d1a:	5a 9a       	sbi	0x0b, 2	; 11
     d1c:	5b 98       	cbi	0x0b, 3	; 11
     d1e:	5c 98       	cbi	0x0b, 4	; 11
     d20:	5d 9a       	sbi	0x0b, 5	; 11
     d22:	26 c0       	rjmp	.+76     	; 0xd70 <setColorPixel+0x7a>
     d24:	5a 98       	cbi	0x0b, 2	; 11
     d26:	5b 9a       	sbi	0x0b, 3	; 11
     d28:	5c 98       	cbi	0x0b, 4	; 11
     d2a:	5d 98       	cbi	0x0b, 5	; 11
     d2c:	09 c0       	rjmp	.+18     	; 0xd40 <setColorPixel+0x4a>
     d2e:	5a 98       	cbi	0x0b, 2	; 11
     d30:	5b 98       	cbi	0x0b, 3	; 11
     d32:	5c 9a       	sbi	0x0b, 4	; 11
     d34:	5d 98       	cbi	0x0b, 5	; 11
     d36:	0a c0       	rjmp	.+20     	; 0xd4c <setColorPixel+0x56>
     d38:	5a 9a       	sbi	0x0b, 2	; 11
     d3a:	5b 9a       	sbi	0x0b, 3	; 11
     d3c:	5c 98       	cbi	0x0b, 4	; 11
     d3e:	5d 9a       	sbi	0x0b, 5	; 11
     d40:	5e 9a       	sbi	0x0b, 6	; 11
     d42:	17 c0       	rjmp	.+46     	; 0xd72 <setColorPixel+0x7c>
     d44:	5a 9a       	sbi	0x0b, 2	; 11
     d46:	5b 98       	cbi	0x0b, 3	; 11
     d48:	5c 9a       	sbi	0x0b, 4	; 11
     d4a:	5d 9a       	sbi	0x0b, 5	; 11
     d4c:	5e 98       	cbi	0x0b, 6	; 11
     d4e:	0a c0       	rjmp	.+20     	; 0xd64 <setColorPixel+0x6e>
     d50:	5a 98       	cbi	0x0b, 2	; 11
     d52:	5b 9a       	sbi	0x0b, 3	; 11
     d54:	5c 9a       	sbi	0x0b, 4	; 11
     d56:	5d 98       	cbi	0x0b, 5	; 11
     d58:	04 c0       	rjmp	.+8      	; 0xd62 <setColorPixel+0x6c>
     d5a:	5a 9a       	sbi	0x0b, 2	; 11
     d5c:	5b 9a       	sbi	0x0b, 3	; 11
     d5e:	5c 9a       	sbi	0x0b, 4	; 11
     d60:	5d 9a       	sbi	0x0b, 5	; 11
     d62:	5e 9a       	sbi	0x0b, 6	; 11
     d64:	5f 9a       	sbi	0x0b, 7	; 11
     d66:	08 95       	ret
     d68:	5a 98       	cbi	0x0b, 2	; 11
     d6a:	5b 98       	cbi	0x0b, 3	; 11
     d6c:	5c 98       	cbi	0x0b, 4	; 11
     d6e:	5d 98       	cbi	0x0b, 5	; 11
     d70:	5e 98       	cbi	0x0b, 6	; 11
     d72:	5f 98       	cbi	0x0b, 7	; 11
     d74:	08 95       	ret

00000d76 <CleanMatrix>:
     d76:	10 92 a5 05 	sts	0x05A5, r1
     d7a:	20 c0       	rjmp	.+64     	; 0xdbc <CleanMatrix+0x46>
     d7c:	10 92 a6 05 	sts	0x05A6, r1
     d80:	14 c0       	rjmp	.+40     	; 0xdaa <CleanMatrix+0x34>
     d82:	e0 91 a6 05 	lds	r30, 0x05A6
     d86:	80 91 a5 05 	lds	r24, 0x05A5
     d8a:	f0 e0       	ldi	r31, 0x00	; 0
     d8c:	95 e0       	ldi	r25, 0x05	; 5
     d8e:	ee 0f       	add	r30, r30
     d90:	ff 1f       	adc	r31, r31
     d92:	9a 95       	dec	r25
     d94:	e1 f7       	brne	.-8      	; 0xd8e <CleanMatrix+0x18>
     d96:	e8 0f       	add	r30, r24
     d98:	f1 1d       	adc	r31, r1
     d9a:	eb 55       	subi	r30, 0x5B	; 91
     d9c:	fe 4f       	sbci	r31, 0xFE	; 254
     d9e:	10 82       	st	Z, r1
     da0:	80 91 a6 05 	lds	r24, 0x05A6
     da4:	8f 5f       	subi	r24, 0xFF	; 255
     da6:	80 93 a6 05 	sts	0x05A6, r24
     daa:	80 91 a6 05 	lds	r24, 0x05A6
     dae:	80 32       	cpi	r24, 0x20	; 32
     db0:	40 f3       	brcs	.-48     	; 0xd82 <CleanMatrix+0xc>
     db2:	80 91 a5 05 	lds	r24, 0x05A5
     db6:	8f 5f       	subi	r24, 0xFF	; 255
     db8:	80 93 a5 05 	sts	0x05A5, r24
     dbc:	80 91 a5 05 	lds	r24, 0x05A5
     dc0:	80 32       	cpi	r24, 0x20	; 32
     dc2:	e0 f2       	brcs	.-72     	; 0xd7c <CleanMatrix+0x6>
     dc4:	08 95       	ret

00000dc6 <CleanMessage>:
     dc6:	10 92 a5 05 	sts	0x05A5, r1
     dca:	1f c0       	rjmp	.+62     	; 0xe0a <CleanMessage+0x44>
     dcc:	89 e1       	ldi	r24, 0x19	; 25
     dce:	12 c0       	rjmp	.+36     	; 0xdf4 <CleanMessage+0x2e>
     dd0:	e0 91 a6 05 	lds	r30, 0x05A6
     dd4:	80 91 a5 05 	lds	r24, 0x05A5
     dd8:	f0 e0       	ldi	r31, 0x00	; 0
     dda:	25 e0       	ldi	r18, 0x05	; 5
     ddc:	ee 0f       	add	r30, r30
     dde:	ff 1f       	adc	r31, r31
     de0:	2a 95       	dec	r18
     de2:	e1 f7       	brne	.-8      	; 0xddc <CleanMessage+0x16>
     de4:	e8 0f       	add	r30, r24
     de6:	f1 1d       	adc	r31, r1
     de8:	eb 55       	subi	r30, 0x5B	; 91
     dea:	fe 4f       	sbci	r31, 0xFE	; 254
     dec:	10 82       	st	Z, r1
     dee:	80 91 a6 05 	lds	r24, 0x05A6
     df2:	8f 5f       	subi	r24, 0xFF	; 255
     df4:	80 93 a6 05 	sts	0x05A6, r24
     df8:	80 91 a6 05 	lds	r24, 0x05A6
     dfc:	80 32       	cpi	r24, 0x20	; 32
     dfe:	40 f3       	brcs	.-48     	; 0xdd0 <CleanMessage+0xa>
     e00:	80 91 a5 05 	lds	r24, 0x05A5
     e04:	8f 5f       	subi	r24, 0xFF	; 255
     e06:	80 93 a5 05 	sts	0x05A5, r24
     e0a:	80 91 a5 05 	lds	r24, 0x05A5
     e0e:	80 32       	cpi	r24, 0x20	; 32
     e10:	e8 f2       	brcs	.-70     	; 0xdcc <CleanMessage+0x6>
     e12:	08 95       	ret

00000e14 <paintPixel>:
     e14:	e6 2f       	mov	r30, r22
     e16:	25 ea       	ldi	r18, 0xA5	; 165
     e18:	31 e0       	ldi	r19, 0x01	; 1
     e1a:	30 93 bd 05 	sts	0x05BD, r19
     e1e:	20 93 bc 05 	sts	0x05BC, r18
     e22:	f0 e0       	ldi	r31, 0x00	; 0
     e24:	55 e0       	ldi	r21, 0x05	; 5
     e26:	ee 0f       	add	r30, r30
     e28:	ff 1f       	adc	r31, r31
     e2a:	5a 95       	dec	r21
     e2c:	e1 f7       	brne	.-8      	; 0xe26 <paintPixel+0x12>
     e2e:	e8 0f       	add	r30, r24
     e30:	f1 1d       	adc	r31, r1
     e32:	e2 0f       	add	r30, r18
     e34:	f3 1f       	adc	r31, r19
     e36:	40 83       	st	Z, r20
     e38:	08 95       	ret

00000e3a <drawLetter>:
     e3a:	8f 92       	push	r8
     e3c:	9f 92       	push	r9
     e3e:	af 92       	push	r10
     e40:	bf 92       	push	r11
     e42:	cf 92       	push	r12
     e44:	df 92       	push	r13
     e46:	ef 92       	push	r14
     e48:	ff 92       	push	r15
     e4a:	0f 93       	push	r16
     e4c:	1f 93       	push	r17
     e4e:	cf 93       	push	r28
     e50:	df 93       	push	r29
     e52:	cd b7       	in	r28, 0x3d	; 61
     e54:	de b7       	in	r29, 0x3e	; 62
     e56:	21 97       	sbiw	r28, 0x01	; 1
     e58:	0f b6       	in	r0, 0x3f	; 63
     e5a:	f8 94       	cli
     e5c:	de bf       	out	0x3e, r29	; 62
     e5e:	0f be       	out	0x3f, r0	; 63
     e60:	cd bf       	out	0x3d, r28	; 61
     e62:	a8 2e       	mov	r10, r24
     e64:	b6 2e       	mov	r11, r22
     e66:	c2 2e       	mov	r12, r18
     e68:	ca 01       	movw	r24, r20
     e6a:	81 54       	subi	r24, 0x41	; 65
     e6c:	90 40       	sbci	r25, 0x00	; 0
     e6e:	4a 97       	sbiw	r24, 0x1a	; 26
     e70:	18 f0       	brcs	.+6      	; 0xe78 <drawLetter+0x3e>
     e72:	20 e4       	ldi	r18, 0x40	; 64
     e74:	31 e0       	ldi	r19, 0x01	; 1
     e76:	09 c0       	rjmp	.+18     	; 0xe8a <drawLetter+0x50>
     e78:	9a 01       	movw	r18, r20
     e7a:	22 0f       	add	r18, r18
     e7c:	33 1f       	adc	r19, r19
     e7e:	22 0f       	add	r18, r18
     e80:	33 1f       	adc	r19, r19
     e82:	24 0f       	add	r18, r20
     e84:	35 1f       	adc	r19, r21
     e86:	25 54       	subi	r18, 0x45	; 69
     e88:	31 40       	sbci	r19, 0x01	; 1
     e8a:	ca 01       	movw	r24, r20
     e8c:	81 56       	subi	r24, 0x61	; 97
     e8e:	90 40       	sbci	r25, 0x00	; 0
     e90:	4a 97       	sbiw	r24, 0x1a	; 26
     e92:	48 f4       	brcc	.+18     	; 0xea6 <drawLetter+0x6c>
     e94:	9a 01       	movw	r18, r20
     e96:	22 0f       	add	r18, r18
     e98:	33 1f       	adc	r19, r19
     e9a:	22 0f       	add	r18, r18
     e9c:	33 1f       	adc	r19, r19
     e9e:	24 0f       	add	r18, r20
     ea0:	35 1f       	adc	r19, r21
     ea2:	23 56       	subi	r18, 0x63	; 99
     ea4:	31 40       	sbci	r19, 0x01	; 1
     ea6:	ca 01       	movw	r24, r20
     ea8:	4e 97       	sbiw	r24, 0x1e	; 30
     eaa:	0a 97       	sbiw	r24, 0x0a	; 10
     eac:	48 f4       	brcc	.+18     	; 0xec0 <drawLetter+0x86>
     eae:	9a 01       	movw	r18, r20
     eb0:	22 0f       	add	r18, r18
     eb2:	33 1f       	adc	r19, r19
     eb4:	22 0f       	add	r18, r18
     eb6:	33 1f       	adc	r19, r19
     eb8:	24 0f       	add	r18, r20
     eba:	35 1f       	adc	r19, r21
     ebc:	2c 52       	subi	r18, 0x2C	; 44
     ebe:	3f 4f       	sbci	r19, 0xFF	; 255
     ec0:	ca 01       	movw	r24, r20
     ec2:	8f 97       	sbiw	r24, 0x2f	; 47
     ec4:	0b 97       	sbiw	r24, 0x0b	; 11
     ec6:	48 f4       	brcc	.+18     	; 0xeda <drawLetter+0xa0>
     ec8:	9a 01       	movw	r18, r20
     eca:	22 0f       	add	r18, r18
     ecc:	33 1f       	adc	r19, r19
     ece:	22 0f       	add	r18, r18
     ed0:	33 1f       	adc	r19, r19
     ed2:	24 0f       	add	r18, r20
     ed4:	35 1f       	adc	r19, r21
     ed6:	27 5e       	subi	r18, 0xE7	; 231
     ed8:	3f 4f       	sbci	r19, 0xFF	; 255
     eda:	49 01       	movw	r8, r18
     edc:	88 0c       	add	r8, r8
     ede:	99 1c       	adc	r9, r9
     ee0:	88 0c       	add	r8, r8
     ee2:	99 1c       	adc	r9, r9
     ee4:	82 0e       	add	r8, r18
     ee6:	93 1e       	adc	r9, r19
     ee8:	28 e6       	ldi	r18, 0x68	; 104
     eea:	30 e0       	ldi	r19, 0x00	; 0
     eec:	82 0e       	add	r8, r18
     eee:	93 1e       	adc	r9, r19
     ef0:	90 e0       	ldi	r25, 0x00	; 0
     ef2:	1b c0       	rjmp	.+54     	; 0xf2a <drawLetter+0xf0>
     ef4:	2a 98       	cbi	0x05, 2	; 5
     ef6:	f7 01       	movw	r30, r14
     ef8:	44 91       	lpm	r20, Z
     efa:	4c 0d       	add	r20, r12
     efc:	6d 2d       	mov	r22, r13
     efe:	8a 2d       	mov	r24, r10
     f00:	80 1b       	sub	r24, r16
     f02:	99 83       	std	Y+1, r25	; 0x01
     f04:	0e 94 0a 07 	call	0xe14	; 0xe14 <paintPixel>
     f08:	2a 9a       	sbi	0x05, 2	; 5
     f0a:	0f 5f       	subi	r16, 0xFF	; 255
     f0c:	1f 4f       	sbci	r17, 0xFF	; 255
     f0e:	08 94       	sec
     f10:	e1 1c       	adc	r14, r1
     f12:	f1 1c       	adc	r15, r1
     f14:	99 81       	ldd	r25, Y+1	; 0x01
     f16:	05 30       	cpi	r16, 0x05	; 5
     f18:	11 05       	cpc	r17, r1
     f1a:	61 f7       	brne	.-40     	; 0xef4 <drawLetter+0xba>
     f1c:	9f 5f       	subi	r25, 0xFF	; 255
     f1e:	25 e0       	ldi	r18, 0x05	; 5
     f20:	30 e0       	ldi	r19, 0x00	; 0
     f22:	82 0e       	add	r8, r18
     f24:	93 1e       	adc	r9, r19
     f26:	95 30       	cpi	r25, 0x05	; 5
     f28:	31 f0       	breq	.+12     	; 0xf36 <drawLetter+0xfc>
     f2a:	74 01       	movw	r14, r8
     f2c:	00 e0       	ldi	r16, 0x00	; 0
     f2e:	10 e0       	ldi	r17, 0x00	; 0
     f30:	d9 2e       	mov	r13, r25
     f32:	db 0c       	add	r13, r11
     f34:	df cf       	rjmp	.-66     	; 0xef4 <drawLetter+0xba>
     f36:	21 96       	adiw	r28, 0x01	; 1
     f38:	0f b6       	in	r0, 0x3f	; 63
     f3a:	f8 94       	cli
     f3c:	de bf       	out	0x3e, r29	; 62
     f3e:	0f be       	out	0x3f, r0	; 63
     f40:	cd bf       	out	0x3d, r28	; 61
     f42:	df 91       	pop	r29
     f44:	cf 91       	pop	r28
     f46:	1f 91       	pop	r17
     f48:	0f 91       	pop	r16
     f4a:	ff 90       	pop	r15
     f4c:	ef 90       	pop	r14
     f4e:	df 90       	pop	r13
     f50:	cf 90       	pop	r12
     f52:	bf 90       	pop	r11
     f54:	af 90       	pop	r10
     f56:	9f 90       	pop	r9
     f58:	8f 90       	pop	r8
     f5a:	08 95       	ret

00000f5c <swap>:
     f5c:	dc 01       	movw	r26, r24
     f5e:	fb 01       	movw	r30, r22
     f60:	20 81       	ld	r18, Z
     f62:	31 81       	ldd	r19, Z+1	; 0x01
     f64:	8d 91       	ld	r24, X+
     f66:	9c 91       	ld	r25, X
     f68:	11 97       	sbiw	r26, 0x01	; 1
     f6a:	91 83       	std	Z+1, r25	; 0x01
     f6c:	80 83       	st	Z, r24
     f6e:	2d 93       	st	X+, r18
     f70:	3c 93       	st	X, r19
     f72:	08 95       	ret

00000f74 <Line>:
     f74:	3f 92       	push	r3
     f76:	4f 92       	push	r4
     f78:	5f 92       	push	r5
     f7a:	6f 92       	push	r6
     f7c:	7f 92       	push	r7
     f7e:	8f 92       	push	r8
     f80:	9f 92       	push	r9
     f82:	af 92       	push	r10
     f84:	bf 92       	push	r11
     f86:	cf 92       	push	r12
     f88:	df 92       	push	r13
     f8a:	ef 92       	push	r14
     f8c:	ff 92       	push	r15
     f8e:	0f 93       	push	r16
     f90:	1f 93       	push	r17
     f92:	cf 93       	push	r28
     f94:	df 93       	push	r29
     f96:	ec 01       	movw	r28, r24
     f98:	fb 01       	movw	r30, r22
     f9a:	6a 01       	movw	r12, r20
     f9c:	30 2e       	mov	r3, r16
     f9e:	a9 01       	movw	r20, r18
     fa0:	46 1b       	sub	r20, r22
     fa2:	57 0b       	sbc	r21, r23
     fa4:	57 ff       	sbrs	r21, 7
     fa6:	03 c0       	rjmp	.+6      	; 0xfae <Line+0x3a>
     fa8:	50 95       	com	r21
     faa:	41 95       	neg	r20
     fac:	5f 4f       	sbci	r21, 0xFF	; 255
     fae:	c6 01       	movw	r24, r12
     fb0:	8c 1b       	sub	r24, r28
     fb2:	9d 0b       	sbc	r25, r29
     fb4:	97 ff       	sbrs	r25, 7
     fb6:	03 c0       	rjmp	.+6      	; 0xfbe <Line+0x4a>
     fb8:	90 95       	com	r25
     fba:	81 95       	neg	r24
     fbc:	9f 4f       	sbci	r25, 0xFF	; 255
     fbe:	84 17       	cp	r24, r20
     fc0:	95 07       	cpc	r25, r21
     fc2:	54 f4       	brge	.+20     	; 0xfd8 <Line+0x64>
     fc4:	cf 01       	movw	r24, r30
     fc6:	fe 01       	movw	r30, r28
     fc8:	ec 01       	movw	r28, r24
     fca:	c9 01       	movw	r24, r18
     fcc:	96 01       	movw	r18, r12
     fce:	6c 01       	movw	r12, r24
     fd0:	11 e0       	ldi	r17, 0x01	; 1
     fd2:	41 2e       	mov	r4, r17
     fd4:	51 2c       	mov	r5, r1
     fd6:	02 c0       	rjmp	.+4      	; 0xfdc <Line+0x68>
     fd8:	44 24       	eor	r4, r4
     fda:	55 24       	eor	r5, r5
     fdc:	cc 16       	cp	r12, r28
     fde:	dd 06       	cpc	r13, r29
     fe0:	34 f4       	brge	.+12     	; 0xfee <Line+0x7a>
     fe2:	c6 01       	movw	r24, r12
     fe4:	6e 01       	movw	r12, r28
     fe6:	ec 01       	movw	r28, r24
     fe8:	c9 01       	movw	r24, r18
     fea:	9f 01       	movw	r18, r30
     fec:	fc 01       	movw	r30, r24
     fee:	46 01       	movw	r8, r12
     ff0:	8c 1a       	sub	r8, r28
     ff2:	9d 0a       	sbc	r9, r29
     ff4:	59 01       	movw	r10, r18
     ff6:	ae 1a       	sub	r10, r30
     ff8:	bf 0a       	sbc	r11, r31
     ffa:	b7 fe       	sbrs	r11, 7
     ffc:	04 c0       	rjmp	.+8      	; 0x1006 <Line+0x92>
     ffe:	b0 94       	com	r11
    1000:	a1 94       	neg	r10
    1002:	b1 08       	sbc	r11, r1
    1004:	b3 94       	inc	r11
    1006:	e2 17       	cp	r30, r18
    1008:	f3 07       	cpc	r31, r19
    100a:	24 f4       	brge	.+8      	; 0x1014 <Line+0xa0>
    100c:	b1 e0       	ldi	r27, 0x01	; 1
    100e:	6b 2e       	mov	r6, r27
    1010:	71 2c       	mov	r7, r1
    1012:	03 c0       	rjmp	.+6      	; 0x101a <Line+0xa6>
    1014:	66 24       	eor	r6, r6
    1016:	6a 94       	dec	r6
    1018:	76 2c       	mov	r7, r6
    101a:	c4 01       	movw	r24, r8
    101c:	62 e0       	ldi	r22, 0x02	; 2
    101e:	70 e0       	ldi	r23, 0x00	; 0
    1020:	0e 94 c7 0d 	call	0x1b8e	; 0x1b8e <__divmodhi4>
    1024:	8b 01       	movw	r16, r22
    1026:	7f 01       	movw	r14, r30
    1028:	16 c0       	rjmp	.+44     	; 0x1056 <Line+0xe2>
    102a:	81 e0       	ldi	r24, 0x01	; 1
    102c:	48 16       	cp	r4, r24
    102e:	51 04       	cpc	r5, r1
    1030:	21 f4       	brne	.+8      	; 0x103a <Line+0xc6>
    1032:	43 2d       	mov	r20, r3
    1034:	6c 2f       	mov	r22, r28
    1036:	8e 2d       	mov	r24, r14
    1038:	03 c0       	rjmp	.+6      	; 0x1040 <Line+0xcc>
    103a:	43 2d       	mov	r20, r3
    103c:	6e 2d       	mov	r22, r14
    103e:	8c 2f       	mov	r24, r28
    1040:	0e 94 0a 07 	call	0xe14	; 0xe14 <paintPixel>
    1044:	0a 19       	sub	r16, r10
    1046:	1b 09       	sbc	r17, r11
    1048:	17 ff       	sbrs	r17, 7
    104a:	04 c0       	rjmp	.+8      	; 0x1054 <Line+0xe0>
    104c:	e6 0c       	add	r14, r6
    104e:	f7 1c       	adc	r15, r7
    1050:	08 0d       	add	r16, r8
    1052:	19 1d       	adc	r17, r9
    1054:	21 96       	adiw	r28, 0x01	; 1
    1056:	cc 16       	cp	r12, r28
    1058:	dd 06       	cpc	r13, r29
    105a:	3c f7       	brge	.-50     	; 0x102a <Line+0xb6>
    105c:	df 91       	pop	r29
    105e:	cf 91       	pop	r28
    1060:	1f 91       	pop	r17
    1062:	0f 91       	pop	r16
    1064:	ff 90       	pop	r15
    1066:	ef 90       	pop	r14
    1068:	df 90       	pop	r13
    106a:	cf 90       	pop	r12
    106c:	bf 90       	pop	r11
    106e:	af 90       	pop	r10
    1070:	9f 90       	pop	r9
    1072:	8f 90       	pop	r8
    1074:	7f 90       	pop	r7
    1076:	6f 90       	pop	r6
    1078:	5f 90       	pop	r5
    107a:	4f 90       	pop	r4
    107c:	3f 90       	pop	r3
    107e:	08 95       	ret

00001080 <MinuteHand>:
    1080:	cf 92       	push	r12
    1082:	df 92       	push	r13
    1084:	ef 92       	push	r14
    1086:	ff 92       	push	r15
    1088:	0f 93       	push	r16
    108a:	1f 93       	push	r17
    108c:	f8 2e       	mov	r15, r24
    108e:	16 2f       	mov	r17, r22
    1090:	e4 2e       	mov	r14, r20
    1092:	d2 2e       	mov	r13, r18
    1094:	c0 2e       	mov	r12, r16
    1096:	80 91 a3 01 	lds	r24, 0x01A3
    109a:	88 23       	and	r24, r24
    109c:	81 f0       	breq	.+32     	; 0x10be <MinuteHand+0x3e>
    109e:	80 91 a4 01 	lds	r24, 0x01A4
    10a2:	88 23       	and	r24, r24
    10a4:	61 f0       	breq	.+24     	; 0x10be <MinuteHand+0x3e>
    10a6:	20 91 a4 01 	lds	r18, 0x01A4
    10aa:	30 e0       	ldi	r19, 0x00	; 0
    10ac:	40 91 a3 01 	lds	r20, 0x01A3
    10b0:	50 e0       	ldi	r21, 0x00	; 0
    10b2:	70 e0       	ldi	r23, 0x00	; 0
    10b4:	00 e0       	ldi	r16, 0x00	; 0
    10b6:	8f 2d       	mov	r24, r15
    10b8:	90 e0       	ldi	r25, 0x00	; 0
    10ba:	0e 94 ba 07 	call	0xf74	; 0xf74 <Line>
    10be:	2d 2d       	mov	r18, r13
    10c0:	30 e0       	ldi	r19, 0x00	; 0
    10c2:	4e 2d       	mov	r20, r14
    10c4:	50 e0       	ldi	r21, 0x00	; 0
    10c6:	61 2f       	mov	r22, r17
    10c8:	70 e0       	ldi	r23, 0x00	; 0
    10ca:	0c 2d       	mov	r16, r12
    10cc:	8f 2d       	mov	r24, r15
    10ce:	90 e0       	ldi	r25, 0x00	; 0
    10d0:	0e 94 ba 07 	call	0xf74	; 0xf74 <Line>
    10d4:	e0 92 a3 01 	sts	0x01A3, r14
    10d8:	d0 92 a4 01 	sts	0x01A4, r13
    10dc:	1f 91       	pop	r17
    10de:	0f 91       	pop	r16
    10e0:	ff 90       	pop	r15
    10e2:	ef 90       	pop	r14
    10e4:	df 90       	pop	r13
    10e6:	cf 90       	pop	r12
    10e8:	08 95       	ret

000010ea <HourHand>:
    10ea:	cf 92       	push	r12
    10ec:	df 92       	push	r13
    10ee:	ef 92       	push	r14
    10f0:	ff 92       	push	r15
    10f2:	0f 93       	push	r16
    10f4:	1f 93       	push	r17
    10f6:	f8 2e       	mov	r15, r24
    10f8:	16 2f       	mov	r17, r22
    10fa:	e4 2e       	mov	r14, r20
    10fc:	d2 2e       	mov	r13, r18
    10fe:	c0 2e       	mov	r12, r16
    1100:	80 91 a9 05 	lds	r24, 0x05A9
    1104:	88 23       	and	r24, r24
    1106:	81 f0       	breq	.+32     	; 0x1128 <HourHand+0x3e>
    1108:	80 91 aa 05 	lds	r24, 0x05AA
    110c:	88 23       	and	r24, r24
    110e:	61 f0       	breq	.+24     	; 0x1128 <HourHand+0x3e>
    1110:	20 91 aa 05 	lds	r18, 0x05AA
    1114:	30 e0       	ldi	r19, 0x00	; 0
    1116:	40 91 a9 05 	lds	r20, 0x05A9
    111a:	50 e0       	ldi	r21, 0x00	; 0
    111c:	70 e0       	ldi	r23, 0x00	; 0
    111e:	00 e0       	ldi	r16, 0x00	; 0
    1120:	8f 2d       	mov	r24, r15
    1122:	90 e0       	ldi	r25, 0x00	; 0
    1124:	0e 94 ba 07 	call	0xf74	; 0xf74 <Line>
    1128:	2d 2d       	mov	r18, r13
    112a:	30 e0       	ldi	r19, 0x00	; 0
    112c:	4e 2d       	mov	r20, r14
    112e:	50 e0       	ldi	r21, 0x00	; 0
    1130:	61 2f       	mov	r22, r17
    1132:	70 e0       	ldi	r23, 0x00	; 0
    1134:	0c 2d       	mov	r16, r12
    1136:	8f 2d       	mov	r24, r15
    1138:	90 e0       	ldi	r25, 0x00	; 0
    113a:	0e 94 ba 07 	call	0xf74	; 0xf74 <Line>
    113e:	e0 92 a9 05 	sts	0x05A9, r14
    1142:	d0 92 aa 05 	sts	0x05AA, r13
    1146:	1f 91       	pop	r17
    1148:	0f 91       	pop	r16
    114a:	ff 90       	pop	r15
    114c:	ef 90       	pop	r14
    114e:	df 90       	pop	r13
    1150:	cf 90       	pop	r12
    1152:	08 95       	ret

00001154 <drawHorizontalLine>:
    1154:	ef 92       	push	r14
    1156:	ff 92       	push	r15
    1158:	0f 93       	push	r16
    115a:	1f 93       	push	r17
    115c:	e8 2e       	mov	r14, r24
    115e:	16 2f       	mov	r17, r22
    1160:	f4 2e       	mov	r15, r20
    1162:	02 2f       	mov	r16, r18
    1164:	60 31       	cpi	r22, 0x10	; 16
    1166:	20 f4       	brcc	.+8      	; 0x1170 <drawHorizontalLine+0x1c>
    1168:	5d 98       	cbi	0x0b, 5	; 11
    116a:	5e 98       	cbi	0x0b, 6	; 11
    116c:	5f 98       	cbi	0x0b, 7	; 11
    116e:	03 c0       	rjmp	.+6      	; 0x1176 <drawHorizontalLine+0x22>
    1170:	5a 98       	cbi	0x0b, 2	; 11
    1172:	5b 98       	cbi	0x0b, 3	; 11
    1174:	5c 98       	cbi	0x0b, 4	; 11
    1176:	10 92 a7 05 	sts	0x05A7, r1
    117a:	0e c0       	rjmp	.+28     	; 0x1198 <drawHorizontalLine+0x44>
    117c:	2a 98       	cbi	0x05, 2	; 5
    117e:	80 91 a7 05 	lds	r24, 0x05A7
    1182:	4f 2d       	mov	r20, r15
    1184:	61 2f       	mov	r22, r17
    1186:	8e 0d       	add	r24, r14
    1188:	0e 94 0a 07 	call	0xe14	; 0xe14 <paintPixel>
    118c:	2a 9a       	sbi	0x05, 2	; 5
    118e:	80 91 a7 05 	lds	r24, 0x05A7
    1192:	8f 5f       	subi	r24, 0xFF	; 255
    1194:	80 93 a7 05 	sts	0x05A7, r24
    1198:	80 91 a7 05 	lds	r24, 0x05A7
    119c:	80 17       	cp	r24, r16
    119e:	70 f3       	brcs	.-36     	; 0x117c <drawHorizontalLine+0x28>
    11a0:	1f 91       	pop	r17
    11a2:	0f 91       	pop	r16
    11a4:	ff 90       	pop	r15
    11a6:	ef 90       	pop	r14
    11a8:	08 95       	ret

000011aa <drawVerticalLine>:
    11aa:	ef 92       	push	r14
    11ac:	ff 92       	push	r15
    11ae:	0f 93       	push	r16
    11b0:	1f 93       	push	r17
    11b2:	e8 2e       	mov	r14, r24
    11b4:	16 2f       	mov	r17, r22
    11b6:	f4 2e       	mov	r15, r20
    11b8:	02 2f       	mov	r16, r18
    11ba:	60 31       	cpi	r22, 0x10	; 16
    11bc:	20 f4       	brcc	.+8      	; 0x11c6 <drawVerticalLine+0x1c>
    11be:	5d 98       	cbi	0x0b, 5	; 11
    11c0:	5e 98       	cbi	0x0b, 6	; 11
    11c2:	5f 98       	cbi	0x0b, 7	; 11
    11c4:	03 c0       	rjmp	.+6      	; 0x11cc <drawVerticalLine+0x22>
    11c6:	5a 98       	cbi	0x0b, 2	; 11
    11c8:	5b 98       	cbi	0x0b, 3	; 11
    11ca:	5c 98       	cbi	0x0b, 4	; 11
    11cc:	10 92 a7 05 	sts	0x05A7, r1
    11d0:	0e c0       	rjmp	.+28     	; 0x11ee <drawVerticalLine+0x44>
    11d2:	2a 98       	cbi	0x05, 2	; 5
    11d4:	60 91 a7 05 	lds	r22, 0x05A7
    11d8:	61 0f       	add	r22, r17
    11da:	4f 2d       	mov	r20, r15
    11dc:	8e 2d       	mov	r24, r14
    11de:	0e 94 0a 07 	call	0xe14	; 0xe14 <paintPixel>
    11e2:	2a 9a       	sbi	0x05, 2	; 5
    11e4:	80 91 a7 05 	lds	r24, 0x05A7
    11e8:	8f 5f       	subi	r24, 0xFF	; 255
    11ea:	80 93 a7 05 	sts	0x05A7, r24
    11ee:	80 91 a7 05 	lds	r24, 0x05A7
    11f2:	80 17       	cp	r24, r16
    11f4:	70 f3       	brcs	.-36     	; 0x11d2 <drawVerticalLine+0x28>
    11f6:	1f 91       	pop	r17
    11f8:	0f 91       	pop	r16
    11fa:	ff 90       	pop	r15
    11fc:	ef 90       	pop	r14
    11fe:	08 95       	ret

00001200 <drawSquare>:
    1200:	ef 92       	push	r14
    1202:	ff 92       	push	r15
    1204:	0f 93       	push	r16
    1206:	1f 93       	push	r17
    1208:	08 2f       	mov	r16, r24
    120a:	e6 2e       	mov	r14, r22
    120c:	f4 2e       	mov	r15, r20
    120e:	12 2f       	mov	r17, r18
    1210:	2a 98       	cbi	0x05, 2	; 5
    1212:	0e 94 aa 08 	call	0x1154	; 0x1154 <drawHorizontalLine>
    1216:	2a 9a       	sbi	0x05, 2	; 5
    1218:	2a 98       	cbi	0x05, 2	; 5
    121a:	6e 2d       	mov	r22, r14
    121c:	61 50       	subi	r22, 0x01	; 1
    121e:	61 0f       	add	r22, r17
    1220:	21 2f       	mov	r18, r17
    1222:	4f 2d       	mov	r20, r15
    1224:	80 2f       	mov	r24, r16
    1226:	0e 94 aa 08 	call	0x1154	; 0x1154 <drawHorizontalLine>
    122a:	2a 9a       	sbi	0x05, 2	; 5
    122c:	2a 98       	cbi	0x05, 2	; 5
    122e:	21 2f       	mov	r18, r17
    1230:	4f 2d       	mov	r20, r15
    1232:	6e 2d       	mov	r22, r14
    1234:	80 2f       	mov	r24, r16
    1236:	0e 94 d5 08 	call	0x11aa	; 0x11aa <drawVerticalLine>
    123a:	2a 9a       	sbi	0x05, 2	; 5
    123c:	2a 98       	cbi	0x05, 2	; 5
    123e:	01 50       	subi	r16, 0x01	; 1
    1240:	21 2f       	mov	r18, r17
    1242:	4f 2d       	mov	r20, r15
    1244:	6e 2d       	mov	r22, r14
    1246:	80 2f       	mov	r24, r16
    1248:	81 0f       	add	r24, r17
    124a:	0e 94 d5 08 	call	0x11aa	; 0x11aa <drawVerticalLine>
    124e:	2a 9a       	sbi	0x05, 2	; 5
    1250:	1f 91       	pop	r17
    1252:	0f 91       	pop	r16
    1254:	ff 90       	pop	r15
    1256:	ef 90       	pop	r14
    1258:	08 95       	ret

0000125a <drawCircle>:
    125a:	2f 92       	push	r2
    125c:	3f 92       	push	r3
    125e:	4f 92       	push	r4
    1260:	5f 92       	push	r5
    1262:	6f 92       	push	r6
    1264:	7f 92       	push	r7
    1266:	8f 92       	push	r8
    1268:	9f 92       	push	r9
    126a:	af 92       	push	r10
    126c:	bf 92       	push	r11
    126e:	cf 92       	push	r12
    1270:	df 92       	push	r13
    1272:	ef 92       	push	r14
    1274:	ff 92       	push	r15
    1276:	0f 93       	push	r16
    1278:	1f 93       	push	r17
    127a:	cf 93       	push	r28
    127c:	df 93       	push	r29
    127e:	cd b7       	in	r28, 0x3d	; 61
    1280:	de b7       	in	r29, 0x3e	; 62
    1282:	24 97       	sbiw	r28, 0x04	; 4
    1284:	0f b6       	in	r0, 0x3f	; 63
    1286:	f8 94       	cli
    1288:	de bf       	out	0x3e, r29	; 62
    128a:	0f be       	out	0x3f, r0	; 63
    128c:	cd bf       	out	0x3d, r28	; 61
    128e:	7c 01       	movw	r14, r24
    1290:	6b 01       	movw	r12, r22
    1292:	8a 01       	movw	r16, r20
    1294:	51 e0       	ldi	r21, 0x01	; 1
    1296:	85 2e       	mov	r8, r21
    1298:	91 2c       	mov	r9, r1
    129a:	82 1a       	sub	r8, r18
    129c:	93 0a       	sbc	r9, r19
    129e:	c9 01       	movw	r24, r18
    12a0:	88 0f       	add	r24, r24
    12a2:	99 1f       	adc	r25, r25
    12a4:	66 24       	eor	r6, r6
    12a6:	77 24       	eor	r7, r7
    12a8:	68 1a       	sub	r6, r24
    12aa:	79 0a       	sbc	r7, r25
    12ac:	3c 83       	std	Y+4, r19	; 0x04
    12ae:	2b 83       	std	Y+3, r18	; 0x03
    12b0:	2a 98       	cbi	0x05, 2	; 5
    12b2:	a0 2e       	mov	r10, r16
    12b4:	46 2e       	mov	r4, r22
    12b6:	bb 80       	ldd	r11, Y+3	; 0x03
    12b8:	5e 2c       	mov	r5, r14
    12ba:	6b 2d       	mov	r22, r11
    12bc:	6c 0d       	add	r22, r12
    12be:	40 2f       	mov	r20, r16
    12c0:	8e 2d       	mov	r24, r14
    12c2:	0e 94 0a 07 	call	0xe14	; 0xe14 <paintPixel>
    12c6:	2a 9a       	sbi	0x05, 2	; 5
    12c8:	2a 98       	cbi	0x05, 2	; 5
    12ca:	6c 2d       	mov	r22, r12
    12cc:	6b 19       	sub	r22, r11
    12ce:	40 2f       	mov	r20, r16
    12d0:	8e 2d       	mov	r24, r14
    12d2:	0e 94 0a 07 	call	0xe14	; 0xe14 <paintPixel>
    12d6:	2a 9a       	sbi	0x05, 2	; 5
    12d8:	2a 98       	cbi	0x05, 2	; 5
    12da:	40 2f       	mov	r20, r16
    12dc:	6c 2d       	mov	r22, r12
    12de:	8b 2d       	mov	r24, r11
    12e0:	8e 0d       	add	r24, r14
    12e2:	0e 94 0a 07 	call	0xe14	; 0xe14 <paintPixel>
    12e6:	2a 9a       	sbi	0x05, 2	; 5
    12e8:	2a 98       	cbi	0x05, 2	; 5
    12ea:	40 2f       	mov	r20, r16
    12ec:	6c 2d       	mov	r22, r12
    12ee:	8e 2d       	mov	r24, r14
    12f0:	8b 19       	sub	r24, r11
    12f2:	0e 94 0a 07 	call	0xe14	; 0xe14 <paintPixel>
    12f6:	2a 9a       	sbi	0x05, 2	; 5
    12f8:	81 e0       	ldi	r24, 0x01	; 1
    12fa:	90 e0       	ldi	r25, 0x00	; 0
    12fc:	9a 83       	std	Y+2, r25	; 0x02
    12fe:	89 83       	std	Y+1, r24	; 0x01
    1300:	22 24       	eor	r2, r2
    1302:	33 24       	eor	r3, r3
    1304:	62 c0       	rjmp	.+196    	; 0x13ca <drawCircle+0x170>
    1306:	97 fc       	sbrc	r9, 7
    1308:	0b c0       	rjmp	.+22     	; 0x1320 <drawCircle+0xc6>
    130a:	eb 81       	ldd	r30, Y+3	; 0x03
    130c:	fc 81       	ldd	r31, Y+4	; 0x04
    130e:	31 97       	sbiw	r30, 0x01	; 1
    1310:	fc 83       	std	Y+4, r31	; 0x04
    1312:	eb 83       	std	Y+3, r30	; 0x03
    1314:	82 e0       	ldi	r24, 0x02	; 2
    1316:	90 e0       	ldi	r25, 0x00	; 0
    1318:	68 0e       	add	r6, r24
    131a:	79 1e       	adc	r7, r25
    131c:	86 0c       	add	r8, r6
    131e:	97 1c       	adc	r9, r7
    1320:	08 94       	sec
    1322:	21 1c       	adc	r2, r1
    1324:	31 1c       	adc	r3, r1
    1326:	e9 81       	ldd	r30, Y+1	; 0x01
    1328:	fa 81       	ldd	r31, Y+2	; 0x02
    132a:	32 96       	adiw	r30, 0x02	; 2
    132c:	fa 83       	std	Y+2, r31	; 0x02
    132e:	e9 83       	std	Y+1, r30	; 0x01
    1330:	8e 0e       	add	r8, r30
    1332:	9f 1e       	adc	r9, r31
    1334:	2a 98       	cbi	0x05, 2	; 5
    1336:	0b 81       	ldd	r16, Y+3	; 0x03
    1338:	10 2f       	mov	r17, r16
    133a:	14 0d       	add	r17, r4
    133c:	d2 2c       	mov	r13, r2
    133e:	d5 0c       	add	r13, r5
    1340:	4a 2d       	mov	r20, r10
    1342:	61 2f       	mov	r22, r17
    1344:	8d 2d       	mov	r24, r13
    1346:	0e 94 0a 07 	call	0xe14	; 0xe14 <paintPixel>
    134a:	2a 9a       	sbi	0x05, 2	; 5
    134c:	2a 98       	cbi	0x05, 2	; 5
    134e:	e5 2c       	mov	r14, r5
    1350:	e2 18       	sub	r14, r2
    1352:	4a 2d       	mov	r20, r10
    1354:	61 2f       	mov	r22, r17
    1356:	8e 2d       	mov	r24, r14
    1358:	0e 94 0a 07 	call	0xe14	; 0xe14 <paintPixel>
    135c:	2a 9a       	sbi	0x05, 2	; 5
    135e:	2a 98       	cbi	0x05, 2	; 5
    1360:	14 2d       	mov	r17, r4
    1362:	10 1b       	sub	r17, r16
    1364:	4a 2d       	mov	r20, r10
    1366:	61 2f       	mov	r22, r17
    1368:	8d 2d       	mov	r24, r13
    136a:	0e 94 0a 07 	call	0xe14	; 0xe14 <paintPixel>
    136e:	2a 9a       	sbi	0x05, 2	; 5
    1370:	2a 98       	cbi	0x05, 2	; 5
    1372:	4a 2d       	mov	r20, r10
    1374:	61 2f       	mov	r22, r17
    1376:	8e 2d       	mov	r24, r14
    1378:	0e 94 0a 07 	call	0xe14	; 0xe14 <paintPixel>
    137c:	2a 9a       	sbi	0x05, 2	; 5
    137e:	2a 98       	cbi	0x05, 2	; 5
    1380:	12 2d       	mov	r17, r2
    1382:	14 0d       	add	r17, r4
    1384:	e0 2e       	mov	r14, r16
    1386:	e5 0c       	add	r14, r5
    1388:	4a 2d       	mov	r20, r10
    138a:	61 2f       	mov	r22, r17
    138c:	8e 2d       	mov	r24, r14
    138e:	0e 94 0a 07 	call	0xe14	; 0xe14 <paintPixel>
    1392:	2a 9a       	sbi	0x05, 2	; 5
    1394:	2a 98       	cbi	0x05, 2	; 5
    1396:	f5 2d       	mov	r31, r5
    1398:	f0 1b       	sub	r31, r16
    139a:	0f 2f       	mov	r16, r31
    139c:	4a 2d       	mov	r20, r10
    139e:	61 2f       	mov	r22, r17
    13a0:	8f 2f       	mov	r24, r31
    13a2:	0e 94 0a 07 	call	0xe14	; 0xe14 <paintPixel>
    13a6:	2a 9a       	sbi	0x05, 2	; 5
    13a8:	2a 98       	cbi	0x05, 2	; 5
    13aa:	14 2d       	mov	r17, r4
    13ac:	12 19       	sub	r17, r2
    13ae:	4a 2d       	mov	r20, r10
    13b0:	61 2f       	mov	r22, r17
    13b2:	8e 2d       	mov	r24, r14
    13b4:	0e 94 0a 07 	call	0xe14	; 0xe14 <paintPixel>
    13b8:	2a 9a       	sbi	0x05, 2	; 5
    13ba:	2a 98       	cbi	0x05, 2	; 5
    13bc:	4a 2d       	mov	r20, r10
    13be:	61 2f       	mov	r22, r17
    13c0:	80 2f       	mov	r24, r16
    13c2:	0e 94 0a 07 	call	0xe14	; 0xe14 <paintPixel>
    13c6:	2a 9a       	sbi	0x05, 2	; 5
    13c8:	2a 98       	cbi	0x05, 2	; 5
    13ca:	8b 81       	ldd	r24, Y+3	; 0x03
    13cc:	9c 81       	ldd	r25, Y+4	; 0x04
    13ce:	28 16       	cp	r2, r24
    13d0:	39 06       	cpc	r3, r25
    13d2:	0c f4       	brge	.+2      	; 0x13d6 <drawCircle+0x17c>
    13d4:	98 cf       	rjmp	.-208    	; 0x1306 <drawCircle+0xac>
    13d6:	24 96       	adiw	r28, 0x04	; 4
    13d8:	0f b6       	in	r0, 0x3f	; 63
    13da:	f8 94       	cli
    13dc:	de bf       	out	0x3e, r29	; 62
    13de:	0f be       	out	0x3f, r0	; 63
    13e0:	cd bf       	out	0x3d, r28	; 61
    13e2:	df 91       	pop	r29
    13e4:	cf 91       	pop	r28
    13e6:	1f 91       	pop	r17
    13e8:	0f 91       	pop	r16
    13ea:	ff 90       	pop	r15
    13ec:	ef 90       	pop	r14
    13ee:	df 90       	pop	r13
    13f0:	cf 90       	pop	r12
    13f2:	bf 90       	pop	r11
    13f4:	af 90       	pop	r10
    13f6:	9f 90       	pop	r9
    13f8:	8f 90       	pop	r8
    13fa:	7f 90       	pop	r7
    13fc:	6f 90       	pop	r6
    13fe:	5f 90       	pop	r5
    1400:	4f 90       	pop	r4
    1402:	3f 90       	pop	r3
    1404:	2f 90       	pop	r2
    1406:	08 95       	ret

00001408 <Display>:
    1408:	80 91 a7 05 	lds	r24, 0x05A7
    140c:	88 b9       	out	0x08, r24	; 8
    140e:	2a 9a       	sbi	0x05, 2	; 5
    1410:	29 9a       	sbi	0x05, 1	; 5
    1412:	10 92 a8 05 	sts	0x05A8, r1
    1416:	23 c0       	rjmp	.+70     	; 0x145e <Display+0x56>
    1418:	e0 91 a7 05 	lds	r30, 0x05A7
    141c:	80 91 a8 05 	lds	r24, 0x05A8
    1420:	f0 e0       	ldi	r31, 0x00	; 0
    1422:	65 e0       	ldi	r22, 0x05	; 5
    1424:	ee 0f       	add	r30, r30
    1426:	ff 1f       	adc	r31, r31
    1428:	6a 95       	dec	r22
    142a:	e1 f7       	brne	.-8      	; 0x1424 <Display+0x1c>
    142c:	e8 1b       	sub	r30, r24
    142e:	f1 09       	sbc	r31, r1
    1430:	eb 55       	subi	r30, 0x5B	; 91
    1432:	fe 4f       	sbci	r31, 0xFE	; 254
    1434:	87 8d       	ldd	r24, Z+31	; 0x1f
    1436:	0e 94 7b 06 	call	0xcf6	; 0xcf6 <setColorPixel>
    143a:	80 91 a7 05 	lds	r24, 0x05A7
    143e:	80 31       	cpi	r24, 0x10	; 16
    1440:	20 f4       	brcc	.+8      	; 0x144a <Display+0x42>
    1442:	5d 98       	cbi	0x0b, 5	; 11
    1444:	5e 98       	cbi	0x0b, 6	; 11
    1446:	5f 98       	cbi	0x0b, 7	; 11
    1448:	03 c0       	rjmp	.+6      	; 0x1450 <Display+0x48>
    144a:	5a 98       	cbi	0x0b, 2	; 11
    144c:	5b 98       	cbi	0x0b, 3	; 11
    144e:	5c 98       	cbi	0x0b, 4	; 11
    1450:	2b 9a       	sbi	0x05, 3	; 5
    1452:	2b 98       	cbi	0x05, 3	; 5
    1454:	80 91 a8 05 	lds	r24, 0x05A8
    1458:	8f 5f       	subi	r24, 0xFF	; 255
    145a:	80 93 a8 05 	sts	0x05A8, r24
    145e:	80 91 a8 05 	lds	r24, 0x05A8
    1462:	80 32       	cpi	r24, 0x20	; 32
    1464:	c8 f2       	brcs	.-78     	; 0x1418 <Display+0x10>
    1466:	80 91 a7 05 	lds	r24, 0x05A7
    146a:	8f 5f       	subi	r24, 0xFF	; 255
    146c:	80 93 a7 05 	sts	0x05A7, r24
    1470:	80 91 a7 05 	lds	r24, 0x05A7
    1474:	80 32       	cpi	r24, 0x20	; 32
    1476:	11 f4       	brne	.+4      	; 0x147c <Display+0x74>
    1478:	10 92 a7 05 	sts	0x05A7, r1
    147c:	2a 98       	cbi	0x05, 2	; 5
    147e:	29 98       	cbi	0x05, 1	; 5
    1480:	08 95       	ret

00001482 <Delay_20mS>:
    1482:	cf 93       	push	r28
    1484:	df 93       	push	r29
    1486:	cd b7       	in	r28, 0x3d	; 61
    1488:	de b7       	in	r29, 0x3e	; 62
    148a:	22 97       	sbiw	r28, 0x02	; 2
    148c:	0f b6       	in	r0, 0x3f	; 63
    148e:	f8 94       	cli
    1490:	de bf       	out	0x3e, r29	; 62
    1492:	0f be       	out	0x3f, r0	; 63
    1494:	cd bf       	out	0x3d, r28	; 61
    1496:	88 e2       	ldi	r24, 0x28	; 40
    1498:	89 83       	std	Y+1, r24	; 0x01
    149a:	8e e0       	ldi	r24, 0x0E	; 14
    149c:	8a 83       	std	Y+2, r24	; 0x02
    149e:	00 00       	nop
    14a0:	00 00       	nop
    14a2:	89 81       	ldd	r24, Y+1	; 0x01
    14a4:	81 50       	subi	r24, 0x01	; 1
    14a6:	89 83       	std	Y+1, r24	; 0x01
    14a8:	89 81       	ldd	r24, Y+1	; 0x01
    14aa:	88 23       	and	r24, r24
    14ac:	c1 f7       	brne	.-16     	; 0x149e <Delay_20mS+0x1c>
    14ae:	8a 81       	ldd	r24, Y+2	; 0x02
    14b0:	81 50       	subi	r24, 0x01	; 1
    14b2:	8a 83       	std	Y+2, r24	; 0x02
    14b4:	8a 81       	ldd	r24, Y+2	; 0x02
    14b6:	88 23       	and	r24, r24
    14b8:	91 f7       	brne	.-28     	; 0x149e <Delay_20mS+0x1c>
    14ba:	22 96       	adiw	r28, 0x02	; 2
    14bc:	0f b6       	in	r0, 0x3f	; 63
    14be:	f8 94       	cli
    14c0:	de bf       	out	0x3e, r29	; 62
    14c2:	0f be       	out	0x3f, r0	; 63
    14c4:	cd bf       	out	0x3d, r28	; 61
    14c6:	df 91       	pop	r29
    14c8:	cf 91       	pop	r28
    14ca:	08 95       	ret

000014cc <UART0_Init>:
    14cc:	0f 93       	push	r16
    14ce:	1f 93       	push	r17
    14d0:	2f 93       	push	r18
    14d2:	3f 93       	push	r19
    14d4:	4f 93       	push	r20
    14d6:	5f 93       	push	r21
    14d8:	50 e0       	ldi	r21, 0x00	; 0
    14da:	46 e0       	ldi	r20, 0x06	; 6
    14dc:	38 e1       	ldi	r19, 0x18	; 24
    14de:	20 e2       	ldi	r18, 0x20	; 32
    14e0:	30 93 c1 00 	sts	0x00C1, r19
    14e4:	40 93 c2 00 	sts	0x00C2, r20
    14e8:	08 2f       	mov	r16, r24
    14ea:	10 e0       	ldi	r17, 0x00	; 0
    14ec:	10 93 c5 00 	sts	0x00C5, r17
    14f0:	00 93 c4 00 	sts	0x00C4, r16
    14f4:	20 93 c0 00 	sts	0x00C0, r18
    14f8:	5f 91       	pop	r21
    14fa:	4f 91       	pop	r20
    14fc:	3f 91       	pop	r19
    14fe:	2f 91       	pop	r18
    1500:	1f 91       	pop	r17
    1502:	0f 91       	pop	r16
    1504:	08 95       	ret

00001506 <UART0_putchar>:
    1506:	5f 93       	push	r21
    1508:	6f 93       	push	r22
    150a:	8f 93       	push	r24

0000150c <UART0_putchar_r>:
    150c:	50 91 c0 00 	lds	r21, 0x00C0
    1510:	55 ff       	sbrs	r21, 5
    1512:	fc cf       	rjmp	.-8      	; 0x150c <UART0_putchar_r>
    1514:	80 93 c6 00 	sts	0x00C6, r24
    1518:	61 e0       	ldi	r22, 0x01	; 1
    151a:	60 fb       	bst	r22, 0
    151c:	55 f9       	bld	r21, 5
    151e:	50 93 c0 00 	sts	0x00C0, r21
    1522:	8f 91       	pop	r24
    1524:	6f 91       	pop	r22
    1526:	5f 91       	pop	r21
    1528:	08 95       	ret

0000152a <UART0_getch>:
    152a:	5f 93       	push	r21

0000152c <UART0_getch_l>:
    152c:	50 91 c0 00 	lds	r21, 0x00C0
    1530:	57 ff       	sbrs	r21, 7
    1532:	fc cf       	rjmp	.-8      	; 0x152c <UART0_getch_l>
    1534:	80 91 c6 00 	lds	r24, 0x00C6
    1538:	5f 91       	pop	r21
    153a:	08 95       	ret

0000153c <UART0_getche>:
    153c:	5f 93       	push	r21

0000153e <UART0_getche_l>:
    153e:	50 91 c0 00 	lds	r21, 0x00C0
    1542:	57 ff       	sbrs	r21, 7
    1544:	fc cf       	rjmp	.-8      	; 0x153e <UART0_getche_l>
    1546:	80 91 c6 00 	lds	r24, 0x00C6
    154a:	dd df       	rcall	.-70     	; 0x1506 <UART0_putchar>
    154c:	5f 91       	pop	r21
    154e:	08 95       	ret

00001550 <UART0_kbhit>:
    1550:	80 91 c6 00 	lds	r24, 0x00C6
    1554:	08 95       	ret

00001556 <UART0_puts>:
    1556:	4f 93       	push	r20
    1558:	8f 93       	push	r24
    155a:	40 e0       	ldi	r20, 0x00	; 0

0000155c <try2>:
    155c:	89 91       	ld	r24, Y+
    155e:	80 93 c6 00 	sts	0x00C6, r24
    1562:	84 13       	cpse	r24, r20
    1564:	fb cf       	rjmp	.-10     	; 0x155c <try2>
    1566:	8f 91       	pop	r24
    1568:	4f 91       	pop	r20
    156a:	08 95       	ret

0000156c <putByteHex>:
    156c:	8f 93       	push	r24
    156e:	9f 93       	push	r25
    1570:	2f 93       	push	r18
    1572:	1f 93       	push	r17
    1574:	0f 93       	push	r16
    1576:	00 e3       	ldi	r16, 0x30	; 48
    1578:	17 e3       	ldi	r17, 0x37	; 55
    157a:	98 2f       	mov	r25, r24
    157c:	80 7f       	andi	r24, 0xF0	; 240
    157e:	82 95       	swap	r24
    1580:	28 2f       	mov	r18, r24
    1582:	2a 5f       	subi	r18, 0xFA	; 250
    1584:	24 ff       	sbrs	r18, 4
    1586:	80 0f       	add	r24, r16
    1588:	24 fd       	sbrc	r18, 4
    158a:	81 0f       	add	r24, r17
    158c:	bc df       	rcall	.-136    	; 0x1506 <UART0_putchar>
    158e:	9f 70       	andi	r25, 0x0F	; 15
    1590:	89 2f       	mov	r24, r25
    1592:	28 2f       	mov	r18, r24
    1594:	2a 5f       	subi	r18, 0xFA	; 250
    1596:	24 ff       	sbrs	r18, 4
    1598:	80 0f       	add	r24, r16
    159a:	24 fd       	sbrc	r18, 4
    159c:	81 0f       	add	r24, r17
    159e:	b3 df       	rcall	.-154    	; 0x1506 <UART0_putchar>
    15a0:	0f 91       	pop	r16
    15a2:	1f 91       	pop	r17
    15a4:	2f 91       	pop	r18
    15a6:	9f 91       	pop	r25
    15a8:	8f 91       	pop	r24
    15aa:	08 95       	ret

000015ac <putWordHex>:
    15ac:	8f 93       	push	r24
    15ae:	9f 93       	push	r25
    15b0:	4f 93       	push	r20
    15b2:	48 2f       	mov	r20, r24
    15b4:	89 2f       	mov	r24, r25
    15b6:	da df       	rcall	.-76     	; 0x156c <putByteHex>
    15b8:	84 2f       	mov	r24, r20
    15ba:	d8 df       	rcall	.-80     	; 0x156c <putByteHex>
    15bc:	4f 91       	pop	r20
    15be:	9f 91       	pop	r25
    15c0:	8f 91       	pop	r24
    15c2:	08 95       	ret

000015c4 <boton>:
    15c4:	32 9b       	sbis	0x06, 2	; 6
    15c6:	81 e0       	ldi	r24, 0x01	; 1
    15c8:	80 e0       	ldi	r24, 0x00	; 0
    15ca:	08 95       	ret

000015cc <num_let>:
    15cc:	0f 93       	push	r16
    15ce:	1f 93       	push	r17
    15d0:	00 e3       	ldi	r16, 0x30	; 48
    15d2:	17 e3       	ldi	r17, 0x37	; 55
    15d4:	8a 30       	cpi	r24, 0x0A	; 10
    15d6:	10 f0       	brcs	.+4      	; 0x15dc <numeros>
    15d8:	81 0f       	add	r24, r17
    15da:	01 c0       	rjmp	.+2      	; 0x15de <fin>

000015dc <numeros>:
    15dc:	80 0f       	add	r24, r16

000015de <fin>:
    15de:	1f 91       	pop	r17
    15e0:	0f 91       	pop	r16
    15e2:	08 95       	ret

000015e4 <Timer2_Ini>:
    15e4:	e0 e7       	ldi	r30, 0x70	; 112
    15e6:	f0 e0       	ldi	r31, 0x00	; 0
    15e8:	10 82       	st	Z, r1
    15ea:	90 e2       	ldi	r25, 0x20	; 32
    15ec:	90 93 b6 00 	sts	0x00B6, r25
    15f0:	22 e0       	ldi	r18, 0x02	; 2
    15f2:	20 93 b0 00 	sts	0x00B0, r18
    15f6:	97 e0       	ldi	r25, 0x07	; 7
    15f8:	90 93 b1 00 	sts	0x00B1, r25
    15fc:	10 92 b2 00 	sts	0x00B2, r1
    1600:	97 bb       	out	0x17, r25	; 23
    1602:	82 95       	swap	r24
    1604:	88 0f       	add	r24, r24
    1606:	80 7e       	andi	r24, 0xE0	; 224
    1608:	81 50       	subi	r24, 0x01	; 1
    160a:	80 93 b3 00 	sts	0x00B3, r24
    160e:	20 83       	st	Z, r18
    1610:	78 94       	sei
    1612:	08 95       	ret

00001614 <Timer2_OneSecIni>:
    1614:	e0 e7       	ldi	r30, 0x70	; 112
    1616:	f0 e0       	ldi	r31, 0x00	; 0
    1618:	10 82       	st	Z, r1
    161a:	80 e2       	ldi	r24, 0x20	; 32
    161c:	80 93 b6 00 	sts	0x00B6, r24
    1620:	92 e0       	ldi	r25, 0x02	; 2
    1622:	90 93 b0 00 	sts	0x00B0, r25
    1626:	87 e0       	ldi	r24, 0x07	; 7
    1628:	80 93 b1 00 	sts	0x00B1, r24
    162c:	10 92 b2 00 	sts	0x00B2, r1
    1630:	87 bb       	out	0x17, r24	; 23
    1632:	8d e7       	ldi	r24, 0x7D	; 125
    1634:	80 93 b3 00 	sts	0x00B3, r24
    1638:	90 83       	st	Z, r25
    163a:	78 94       	sei
    163c:	08 95       	ret

0000163e <Timer2_Flag>:
    163e:	80 91 ac 05 	lds	r24, 0x05AC
    1642:	88 23       	and	r24, r24
    1644:	11 f0       	breq	.+4      	; 0x164a <Timer2_Flag+0xc>
    1646:	10 92 ac 05 	sts	0x05AC, r1
    164a:	90 e0       	ldi	r25, 0x00	; 0
    164c:	08 95       	ret

0000164e <__vector_7>:
    164e:	1f 92       	push	r1
    1650:	0f 92       	push	r0
    1652:	0f b6       	in	r0, 0x3f	; 63
    1654:	0f 92       	push	r0
    1656:	11 24       	eor	r1, r1
    1658:	8f 93       	push	r24
    165a:	80 91 ab 05 	lds	r24, 0x05AB
    165e:	8f 5f       	subi	r24, 0xFF	; 255
    1660:	80 93 ab 05 	sts	0x05AB, r24
    1664:	80 91 ab 05 	lds	r24, 0x05AB
    1668:	8d 37       	cpi	r24, 0x7D	; 125
    166a:	28 f0       	brcs	.+10     	; 0x1676 <__vector_7+0x28>
    166c:	10 92 ab 05 	sts	0x05AB, r1
    1670:	81 e0       	ldi	r24, 0x01	; 1
    1672:	80 93 ac 05 	sts	0x05AC, r24
    1676:	8f 91       	pop	r24
    1678:	0f 90       	pop	r0
    167a:	0f be       	out	0x3f, r0	; 63
    167c:	0f 90       	pop	r0
    167e:	1f 90       	pop	r1
    1680:	18 95       	reti

00001682 <SetIntClk_2MHz>:
    1682:	e1 e6       	ldi	r30, 0x61	; 97
    1684:	f0 e0       	ldi	r31, 0x00	; 0
    1686:	90 e8       	ldi	r25, 0x80	; 128
    1688:	90 83       	st	Z, r25
    168a:	82 e0       	ldi	r24, 0x02	; 2
    168c:	80 83       	st	Z, r24
	...
    1696:	00 00       	nop
    1698:	90 83       	st	Z, r25
    169a:	80 83       	st	Z, r24
    169c:	00 00       	nop
    169e:	00 00       	nop
    16a0:	08 95       	ret

000016a2 <Clock_Ini>:
    16a2:	80 93 ad 05 	sts	0x05AD, r24
    16a6:	60 93 ae 05 	sts	0x05AE, r22
    16aa:	40 93 af 05 	sts	0x05AF, r20
    16ae:	08 95       	ret

000016b0 <Clock_Update>:
    16b0:	80 91 af 05 	lds	r24, 0x05AF
    16b4:	8f 5f       	subi	r24, 0xFF	; 255
    16b6:	80 93 af 05 	sts	0x05AF, r24
    16ba:	80 91 af 05 	lds	r24, 0x05AF
    16be:	8c 33       	cpi	r24, 0x3C	; 60
    16c0:	c0 f0       	brcs	.+48     	; 0x16f2 <Clock_Update+0x42>
    16c2:	10 92 af 05 	sts	0x05AF, r1
    16c6:	80 91 ae 05 	lds	r24, 0x05AE
    16ca:	8f 5f       	subi	r24, 0xFF	; 255
    16cc:	80 93 ae 05 	sts	0x05AE, r24
    16d0:	80 91 ae 05 	lds	r24, 0x05AE
    16d4:	8c 33       	cpi	r24, 0x3C	; 60
    16d6:	68 f0       	brcs	.+26     	; 0x16f2 <Clock_Update+0x42>
    16d8:	10 92 ae 05 	sts	0x05AE, r1
    16dc:	80 91 ad 05 	lds	r24, 0x05AD
    16e0:	8f 5f       	subi	r24, 0xFF	; 255
    16e2:	80 93 ad 05 	sts	0x05AD, r24
    16e6:	80 91 ad 05 	lds	r24, 0x05AD
    16ea:	8c 30       	cpi	r24, 0x0C	; 12
    16ec:	10 f0       	brcs	.+4      	; 0x16f2 <Clock_Update+0x42>
    16ee:	10 92 ad 05 	sts	0x05AD, r1
    16f2:	08 95       	ret

000016f4 <BCD_Value>:
    16f4:	80 93 b0 05 	sts	0x05B0, r24
    16f8:	80 91 b0 05 	lds	r24, 0x05B0
    16fc:	6a e0       	ldi	r22, 0x0A	; 10
    16fe:	0e 94 bb 0d 	call	0x1b76	; 0x1b76 <__udivmodqi4>
    1702:	80 93 b1 05 	sts	0x05B1, r24
    1706:	80 91 b1 05 	lds	r24, 0x05B1
    170a:	8a 30       	cpi	r24, 0x0A	; 10
    170c:	b8 f4       	brcc	.+46     	; 0x173c <BCD_Value+0x48>
    170e:	80 91 b0 05 	lds	r24, 0x05B0
    1712:	0e 94 bb 0d 	call	0x1b76	; 0x1b76 <__udivmodqi4>
    1716:	90 93 b2 05 	sts	0x05B2, r25
    171a:	80 91 b1 05 	lds	r24, 0x05B1
    171e:	90 e0       	ldi	r25, 0x00	; 0
    1720:	24 e0       	ldi	r18, 0x04	; 4
    1722:	88 0f       	add	r24, r24
    1724:	99 1f       	adc	r25, r25
    1726:	2a 95       	dec	r18
    1728:	e1 f7       	brne	.-8      	; 0x1722 <BCD_Value+0x2e>
    172a:	80 93 b1 05 	sts	0x05B1, r24
    172e:	90 91 b1 05 	lds	r25, 0x05B1
    1732:	80 91 b2 05 	lds	r24, 0x05B2
    1736:	89 0f       	add	r24, r25
    1738:	80 93 b0 05 	sts	0x05B0, r24
    173c:	80 91 b0 05 	lds	r24, 0x05B0
    1740:	90 e0       	ldi	r25, 0x00	; 0
    1742:	08 95       	ret

00001744 <BCD_Time>:
    1744:	cf 92       	push	r12
    1746:	df 92       	push	r13
    1748:	ef 92       	push	r14
    174a:	ff 92       	push	r15
    174c:	0f 93       	push	r16
    174e:	1f 93       	push	r17
    1750:	cf 93       	push	r28
    1752:	df 93       	push	r29
    1754:	cd b7       	in	r28, 0x3d	; 61
    1756:	de b7       	in	r29, 0x3e	; 62
    1758:	23 97       	sbiw	r28, 0x03	; 3
    175a:	0f b6       	in	r0, 0x3f	; 63
    175c:	f8 94       	cli
    175e:	de bf       	out	0x3e, r29	; 62
    1760:	0f be       	out	0x3f, r0	; 63
    1762:	cd bf       	out	0x3d, r28	; 61
    1764:	ee 24       	eor	r14, r14
    1766:	ff 24       	eor	r15, r15
    1768:	87 01       	movw	r16, r14
    176a:	80 91 ad 05 	lds	r24, 0x05AD
    176e:	0e 94 7a 0b 	call	0x16f4	; 0x16f4 <BCD_Value>
    1772:	c8 2e       	mov	r12, r24
    1774:	80 91 ae 05 	lds	r24, 0x05AE
    1778:	0e 94 7a 0b 	call	0x16f4	; 0x16f4 <BCD_Value>
    177c:	d8 2e       	mov	r13, r24
    177e:	80 91 af 05 	lds	r24, 0x05AF
    1782:	0e 94 7a 0b 	call	0x16f4	; 0x16f4 <BCD_Value>
    1786:	ec 2c       	mov	r14, r12
    1788:	fd 2c       	mov	r15, r13
    178a:	08 2f       	mov	r16, r24
    178c:	c8 01       	movw	r24, r16
    178e:	b7 01       	movw	r22, r14
    1790:	23 96       	adiw	r28, 0x03	; 3
    1792:	0f b6       	in	r0, 0x3f	; 63
    1794:	f8 94       	cli
    1796:	de bf       	out	0x3e, r29	; 62
    1798:	0f be       	out	0x3f, r0	; 63
    179a:	cd bf       	out	0x3d, r28	; 61
    179c:	df 91       	pop	r29
    179e:	cf 91       	pop	r28
    17a0:	1f 91       	pop	r17
    17a2:	0f 91       	pop	r16
    17a4:	ff 90       	pop	r15
    17a6:	ef 90       	pop	r14
    17a8:	df 90       	pop	r13
    17aa:	cf 90       	pop	r12
    17ac:	08 95       	ret

000017ae <CurrentTime>:
    17ae:	cf 93       	push	r28
    17b0:	df 93       	push	r29
    17b2:	cd b7       	in	r28, 0x3d	; 61
    17b4:	de b7       	in	r29, 0x3e	; 62
    17b6:	23 97       	sbiw	r28, 0x03	; 3
    17b8:	0f b6       	in	r0, 0x3f	; 63
    17ba:	f8 94       	cli
    17bc:	de bf       	out	0x3e, r29	; 62
    17be:	0f be       	out	0x3f, r0	; 63
    17c0:	cd bf       	out	0x3d, r28	; 61
    17c2:	60 e0       	ldi	r22, 0x00	; 0
    17c4:	70 e0       	ldi	r23, 0x00	; 0
    17c6:	80 e0       	ldi	r24, 0x00	; 0
    17c8:	90 e0       	ldi	r25, 0x00	; 0
    17ca:	20 91 ad 05 	lds	r18, 0x05AD
    17ce:	30 91 ae 05 	lds	r19, 0x05AE
    17d2:	40 91 af 05 	lds	r20, 0x05AF
    17d6:	62 2f       	mov	r22, r18
    17d8:	73 2f       	mov	r23, r19
    17da:	84 2f       	mov	r24, r20
    17dc:	23 96       	adiw	r28, 0x03	; 3
    17de:	0f b6       	in	r0, 0x3f	; 63
    17e0:	f8 94       	cli
    17e2:	de bf       	out	0x3e, r29	; 62
    17e4:	0f be       	out	0x3f, r0	; 63
    17e6:	cd bf       	out	0x3d, r28	; 61
    17e8:	df 91       	pop	r29
    17ea:	cf 91       	pop	r28
    17ec:	08 95       	ret

000017ee <Clock_Display>:
    17ee:	cf 93       	push	r28
    17f0:	df 93       	push	r29
    17f2:	cd b7       	in	r28, 0x3d	; 61
    17f4:	de b7       	in	r29, 0x3e	; 62
    17f6:	26 97       	sbiw	r28, 0x06	; 6
    17f8:	0f b6       	in	r0, 0x3f	; 63
    17fa:	f8 94       	cli
    17fc:	de bf       	out	0x3e, r29	; 62
    17fe:	0f be       	out	0x3f, r0	; 63
    1800:	cd bf       	out	0x3d, r28	; 61
    1802:	0e 94 a2 0b 	call	0x1744	; 0x1744 <BCD_Time>
    1806:	6c 83       	std	Y+4, r22	; 0x04
    1808:	7d 83       	std	Y+5, r23	; 0x05
    180a:	8e 83       	std	Y+6, r24	; 0x06
    180c:	de 01       	movw	r26, r28
    180e:	11 96       	adiw	r26, 0x01	; 1
    1810:	fe 01       	movw	r30, r28
    1812:	34 96       	adiw	r30, 0x04	; 4
    1814:	83 e0       	ldi	r24, 0x03	; 3
    1816:	01 90       	ld	r0, Z+
    1818:	0d 92       	st	X+, r0
    181a:	81 50       	subi	r24, 0x01	; 1
    181c:	e1 f7       	brne	.-8      	; 0x1816 <Clock_Display+0x28>
    181e:	89 81       	ldd	r24, Y+1	; 0x01
    1820:	0e 94 b6 0a 	call	0x156c	; 0x156c <putByteHex>
    1824:	8a e3       	ldi	r24, 0x3A	; 58
    1826:	0e 94 83 0a 	call	0x1506	; 0x1506 <UART0_putchar>
    182a:	8a 81       	ldd	r24, Y+2	; 0x02
    182c:	0e 94 b6 0a 	call	0x156c	; 0x156c <putByteHex>
    1830:	8a e3       	ldi	r24, 0x3A	; 58
    1832:	0e 94 83 0a 	call	0x1506	; 0x1506 <UART0_putchar>
    1836:	8b 81       	ldd	r24, Y+3	; 0x03
    1838:	0e 94 b6 0a 	call	0x156c	; 0x156c <putByteHex>
    183c:	26 96       	adiw	r28, 0x06	; 6
    183e:	0f b6       	in	r0, 0x3f	; 63
    1840:	f8 94       	cli
    1842:	de bf       	out	0x3e, r29	; 62
    1844:	0f be       	out	0x3f, r0	; 63
    1846:	cd bf       	out	0x3d, r28	; 61
    1848:	df 91       	pop	r29
    184a:	cf 91       	pop	r28
    184c:	08 95       	ret

0000184e <EEPROM_Ini>:
    184e:	fd 98       	cbi	0x1f, 5	; 31
    1850:	fc 98       	cbi	0x1f, 4	; 31
    1852:	fb 98       	cbi	0x1f, 3	; 31
    1854:	08 95       	ret

00001856 <EEPROM_Write>:
    1856:	f9 99       	sbic	0x1f, 1	; 31
    1858:	fe cf       	rjmp	.-4      	; 0x1856 <EEPROM_Write>
    185a:	81 bd       	out	0x21, r24	; 33
    185c:	60 bd       	out	0x20, r22	; 32
    185e:	fa 9a       	sbi	0x1f, 2	; 31
    1860:	f9 9a       	sbi	0x1f, 1	; 31
    1862:	08 95       	ret

00001864 <EEPROM_Read>:
    1864:	f9 99       	sbic	0x1f, 1	; 31
    1866:	fe cf       	rjmp	.-4      	; 0x1864 <EEPROM_Read>
    1868:	81 bd       	out	0x21, r24	; 33
    186a:	f8 9a       	sbi	0x1f, 0	; 31
    186c:	80 b5       	in	r24, 0x20	; 32
    186e:	90 e0       	ldi	r25, 0x00	; 0
    1870:	08 95       	ret

00001872 <PortConfig>:
    1872:	8e e0       	ldi	r24, 0x0E	; 14
    1874:	84 b9       	out	0x04, r24	; 4
    1876:	8a e0       	ldi	r24, 0x0A	; 10
    1878:	85 b9       	out	0x05, r24	; 5
    187a:	8f e0       	ldi	r24, 0x0F	; 15
    187c:	87 b9       	out	0x07, r24	; 7
    187e:	18 b8       	out	0x08, r1	; 8
    1880:	8c ef       	ldi	r24, 0xFC	; 252
    1882:	8a b9       	out	0x0a, r24	; 10
    1884:	1b b8       	out	0x0b, r1	; 11
    1886:	08 95       	ret

00001888 <UART0_putsf>:
    1888:	cf 93       	push	r28
    188a:	df 93       	push	r29
    188c:	ec 01       	movw	r28, r24
    188e:	05 c0       	rjmp	.+10     	; 0x189a <UART0_putsf+0x12>
    1890:	21 96       	adiw	r28, 0x01	; 1
    1892:	f9 01       	movw	r30, r18
    1894:	84 91       	lpm	r24, Z
    1896:	0e 94 83 0a 	call	0x1506	; 0x1506 <UART0_putchar>
    189a:	9e 01       	movw	r18, r28
    189c:	fe 01       	movw	r30, r28
    189e:	84 91       	lpm	r24, Z
    18a0:	88 23       	and	r24, r24
    18a2:	b1 f7       	brne	.-20     	; 0x1890 <UART0_putsf+0x8>
    18a4:	df 91       	pop	r29
    18a6:	cf 91       	pop	r28
    18a8:	08 95       	ret

000018aa <gotoxy>:
    18aa:	0f 93       	push	r16
    18ac:	1f 93       	push	r17
    18ae:	08 2f       	mov	r16, r24
    18b0:	16 2f       	mov	r17, r22
    18b2:	8b e1       	ldi	r24, 0x1B	; 27
    18b4:	0e 94 83 0a 	call	0x1506	; 0x1506 <UART0_putchar>
    18b8:	8b e5       	ldi	r24, 0x5B	; 91
    18ba:	0e 94 83 0a 	call	0x1506	; 0x1506 <UART0_putchar>
    18be:	81 2f       	mov	r24, r17
    18c0:	6a e0       	ldi	r22, 0x0A	; 10
    18c2:	0e 94 bb 0d 	call	0x1b76	; 0x1b76 <__udivmodqi4>
    18c6:	80 5d       	subi	r24, 0xD0	; 208
    18c8:	0e 94 83 0a 	call	0x1506	; 0x1506 <UART0_putchar>
    18cc:	81 2f       	mov	r24, r17
    18ce:	6a e0       	ldi	r22, 0x0A	; 10
    18d0:	0e 94 bb 0d 	call	0x1b76	; 0x1b76 <__udivmodqi4>
    18d4:	89 2f       	mov	r24, r25
    18d6:	80 5d       	subi	r24, 0xD0	; 208
    18d8:	0e 94 83 0a 	call	0x1506	; 0x1506 <UART0_putchar>
    18dc:	8b e3       	ldi	r24, 0x3B	; 59
    18de:	0e 94 83 0a 	call	0x1506	; 0x1506 <UART0_putchar>
    18e2:	80 2f       	mov	r24, r16
    18e4:	6a e0       	ldi	r22, 0x0A	; 10
    18e6:	0e 94 bb 0d 	call	0x1b76	; 0x1b76 <__udivmodqi4>
    18ea:	80 5d       	subi	r24, 0xD0	; 208
    18ec:	0e 94 83 0a 	call	0x1506	; 0x1506 <UART0_putchar>
    18f0:	80 2f       	mov	r24, r16
    18f2:	6a e0       	ldi	r22, 0x0A	; 10
    18f4:	0e 94 bb 0d 	call	0x1b76	; 0x1b76 <__udivmodqi4>
    18f8:	89 2f       	mov	r24, r25
    18fa:	80 5d       	subi	r24, 0xD0	; 208
    18fc:	0e 94 83 0a 	call	0x1506	; 0x1506 <UART0_putchar>
    1900:	86 e6       	ldi	r24, 0x66	; 102
    1902:	0e 94 83 0a 	call	0x1506	; 0x1506 <UART0_putchar>
    1906:	1f 91       	pop	r17
    1908:	0f 91       	pop	r16
    190a:	08 95       	ret

0000190c <clrscr>:
    190c:	8b e1       	ldi	r24, 0x1B	; 27
    190e:	0e 94 83 0a 	call	0x1506	; 0x1506 <UART0_putchar>
    1912:	8b e5       	ldi	r24, 0x5B	; 91
    1914:	0e 94 83 0a 	call	0x1506	; 0x1506 <UART0_putchar>
    1918:	82 e3       	ldi	r24, 0x32	; 50
    191a:	0e 94 83 0a 	call	0x1506	; 0x1506 <UART0_putchar>
    191e:	8a e4       	ldi	r24, 0x4A	; 74
    1920:	0e 94 83 0a 	call	0x1506	; 0x1506 <UART0_putchar>
    1924:	08 95       	ret

00001926 <config_clock>:
    1926:	ff 92       	push	r15
    1928:	0f 93       	push	r16
    192a:	1f 93       	push	r17
    192c:	0e 94 9e 0a 	call	0x153c	; 0x153c <UART0_getche>
    1930:	f8 2e       	mov	r15, r24
    1932:	81 e3       	ldi	r24, 0x31	; 49
    1934:	8f 15       	cp	r24, r15
    1936:	10 f4       	brcc	.+4      	; 0x193c <config_clock+0x16>
    1938:	90 e3       	ldi	r25, 0x30	; 48
    193a:	f9 2e       	mov	r15, r25
    193c:	0e 94 9e 0a 	call	0x153c	; 0x153c <UART0_getche>
    1940:	08 2f       	mov	r16, r24
    1942:	81 e3       	ldi	r24, 0x31	; 49
    1944:	f8 16       	cp	r15, r24
    1946:	29 f4       	brne	.+10     	; 0x1952 <config_clock+0x2c>
    1948:	02 33       	cpi	r16, 0x32	; 50
    194a:	18 f0       	brcs	.+6      	; 0x1952 <config_clock+0x2c>
    194c:	80 e3       	ldi	r24, 0x30	; 48
    194e:	f8 2e       	mov	r15, r24
    1950:	00 e3       	ldi	r16, 0x30	; 48
    1952:	8a e3       	ldi	r24, 0x3A	; 58
    1954:	0e 94 83 0a 	call	0x1506	; 0x1506 <UART0_putchar>
    1958:	0e 94 9e 0a 	call	0x153c	; 0x153c <UART0_getche>
    195c:	18 2f       	mov	r17, r24
    195e:	86 33       	cpi	r24, 0x36	; 54
    1960:	08 f0       	brcs	.+2      	; 0x1964 <config_clock+0x3e>
    1962:	10 e3       	ldi	r17, 0x30	; 48
    1964:	0e 94 9e 0a 	call	0x153c	; 0x153c <UART0_getche>
    1968:	80 51       	subi	r24, 0x10	; 16
    196a:	ea e0       	ldi	r30, 0x0A	; 10
    196c:	1e 9f       	mul	r17, r30
    196e:	90 01       	movw	r18, r0
    1970:	11 24       	eor	r1, r1
    1972:	82 0f       	add	r24, r18
    1974:	00 51       	subi	r16, 0x10	; 16
    1976:	fe 9e       	mul	r15, r30
    1978:	f0 01       	movw	r30, r0
    197a:	11 24       	eor	r1, r1
    197c:	40 e0       	ldi	r20, 0x00	; 0
    197e:	68 2f       	mov	r22, r24
    1980:	80 2f       	mov	r24, r16
    1982:	8e 0f       	add	r24, r30
    1984:	0e 94 51 0b 	call	0x16a2	; 0x16a2 <Clock_Ini>
    1988:	0e 94 58 0b 	call	0x16b0	; 0x16b0 <Clock_Update>
    198c:	1f 91       	pop	r17
    198e:	0f 91       	pop	r16
    1990:	ff 90       	pop	r15
    1992:	08 95       	ret

00001994 <TextSave>:
    1994:	ef 92       	push	r14
    1996:	ff 92       	push	r15
    1998:	1f 93       	push	r17
    199a:	cf 93       	push	r28
    199c:	df 93       	push	r29
    199e:	7c 01       	movw	r14, r24
    19a0:	10 92 c6 05 	sts	0x05C6, r1
    19a4:	47 c0       	rjmp	.+142    	; 0x1a34 <TextSave+0xa0>
    19a6:	0e 94 9e 0a 	call	0x153c	; 0x153c <UART0_getche>
    19aa:	18 2f       	mov	r17, r24
    19ac:	88 30       	cpi	r24, 0x08	; 8
    19ae:	a9 f4       	brne	.+42     	; 0x19da <TextSave+0x46>
    19b0:	80 91 c6 05 	lds	r24, 0x05C6
    19b4:	88 23       	and	r24, r24
    19b6:	f1 f1       	breq	.+124    	; 0x1a34 <TextSave+0xa0>
    19b8:	63 e0       	ldi	r22, 0x03	; 3
    19ba:	8e 5f       	subi	r24, 0xFE	; 254
    19bc:	0e 94 55 0c 	call	0x18aa	; 0x18aa <gotoxy>
    19c0:	80 e2       	ldi	r24, 0x20	; 32
    19c2:	0e 94 83 0a 	call	0x1506	; 0x1506 <UART0_putchar>
    19c6:	80 91 c6 05 	lds	r24, 0x05C6
    19ca:	63 e0       	ldi	r22, 0x03	; 3
    19cc:	8e 5f       	subi	r24, 0xFE	; 254
    19ce:	0e 94 55 0c 	call	0x18aa	; 0x18aa <gotoxy>
    19d2:	80 91 c6 05 	lds	r24, 0x05C6
    19d6:	81 50       	subi	r24, 0x01	; 1
    19d8:	2b c0       	rjmp	.+86     	; 0x1a30 <TextSave+0x9c>
    19da:	e0 91 c6 05 	lds	r30, 0x05C6
    19de:	e7 01       	movw	r28, r14
    19e0:	21 96       	adiw	r28, 0x01	; 1
    19e2:	80 32       	cpi	r24, 0x20	; 32
    19e4:	69 f1       	breq	.+90     	; 0x1a40 <TextSave+0xac>
    19e6:	f0 e0       	ldi	r31, 0x00	; 0
    19e8:	e2 54       	subi	r30, 0x42	; 66
    19ea:	fa 4f       	sbci	r31, 0xFA	; 250
    19ec:	80 83       	st	Z, r24
    19ee:	68 2f       	mov	r22, r24
    19f0:	c7 01       	movw	r24, r14
    19f2:	0e 94 2b 0c 	call	0x1856	; 0x1856 <EEPROM_Write>
    19f6:	90 91 c6 05 	lds	r25, 0x05C6
    19fa:	9f 5f       	subi	r25, 0xFF	; 255
    19fc:	90 93 c6 05 	sts	0x05C6, r25
    1a00:	7e 01       	movw	r14, r28
    1a02:	1d 30       	cpi	r17, 0x0D	; 13
    1a04:	b9 f4       	brne	.+46     	; 0x1a34 <TextSave+0xa0>
    1a06:	88 e0       	ldi	r24, 0x08	; 8
    1a08:	89 1b       	sub	r24, r25
    1a0a:	0b c0       	rjmp	.+22     	; 0x1a22 <TextSave+0x8e>
    1a0c:	f0 e0       	ldi	r31, 0x00	; 0
    1a0e:	e2 54       	subi	r30, 0x42	; 66
    1a10:	fa 4f       	sbci	r31, 0xFA	; 250
    1a12:	10 82       	st	Z, r1
    1a14:	60 e0       	ldi	r22, 0x00	; 0
    1a16:	ce 01       	movw	r24, r28
    1a18:	0e 94 2b 0c 	call	0x1856	; 0x1856 <EEPROM_Write>
    1a1c:	80 91 c4 05 	lds	r24, 0x05C4
    1a20:	8f 5f       	subi	r24, 0xFF	; 255
    1a22:	80 93 c4 05 	sts	0x05C4, r24
    1a26:	e0 91 c4 05 	lds	r30, 0x05C4
    1a2a:	e8 30       	cpi	r30, 0x08	; 8
    1a2c:	78 f3       	brcs	.-34     	; 0x1a0c <TextSave+0x78>
    1a2e:	88 e0       	ldi	r24, 0x08	; 8
    1a30:	80 93 c6 05 	sts	0x05C6, r24
    1a34:	80 91 c6 05 	lds	r24, 0x05C6
    1a38:	88 30       	cpi	r24, 0x08	; 8
    1a3a:	08 f4       	brcc	.+2      	; 0x1a3e <TextSave+0xaa>
    1a3c:	b4 cf       	rjmp	.-152    	; 0x19a6 <TextSave+0x12>
    1a3e:	0f c0       	rjmp	.+30     	; 0x1a5e <TextSave+0xca>
    1a40:	f0 e0       	ldi	r31, 0x00	; 0
    1a42:	e2 54       	subi	r30, 0x42	; 66
    1a44:	fa 4f       	sbci	r31, 0xFA	; 250
    1a46:	10 82       	st	Z, r1
    1a48:	60 e0       	ldi	r22, 0x00	; 0
    1a4a:	c7 01       	movw	r24, r14
    1a4c:	0e 94 2b 0c 	call	0x1856	; 0x1856 <EEPROM_Write>
    1a50:	80 91 c6 05 	lds	r24, 0x05C6
    1a54:	8f 5f       	subi	r24, 0xFF	; 255
    1a56:	80 93 c6 05 	sts	0x05C6, r24
    1a5a:	7e 01       	movw	r14, r28
    1a5c:	eb cf       	rjmp	.-42     	; 0x1a34 <TextSave+0xa0>
    1a5e:	0e 94 95 0a 	call	0x152a	; 0x152a <UART0_getch>
    1a62:	df 91       	pop	r29
    1a64:	cf 91       	pop	r28
    1a66:	1f 91       	pop	r17
    1a68:	ff 90       	pop	r15
    1a6a:	ef 90       	pop	r14
    1a6c:	08 95       	ret

00001a6e <menu>:
    1a6e:	cf 92       	push	r12
    1a70:	df 92       	push	r13
    1a72:	ef 92       	push	r14
    1a74:	ff 92       	push	r15
    1a76:	0f 93       	push	r16
    1a78:	1f 93       	push	r17
    1a7a:	cf 93       	push	r28
    1a7c:	df 93       	push	r29
    1a7e:	10 92 c5 05 	sts	0x05C5, r1
    1a82:	91 ec       	ldi	r25, 0xC1	; 193
    1a84:	c9 2e       	mov	r12, r25
    1a86:	96 e0       	ldi	r25, 0x06	; 6
    1a88:	d9 2e       	mov	r13, r25
    1a8a:	ca e2       	ldi	r28, 0x2A	; 42
    1a8c:	d7 e0       	ldi	r29, 0x07	; 7
    1a8e:	85 e8       	ldi	r24, 0x85	; 133
    1a90:	e8 2e       	mov	r14, r24
    1a92:	87 e0       	ldi	r24, 0x07	; 7
    1a94:	f8 2e       	mov	r15, r24
    1a96:	00 ef       	ldi	r16, 0xF0	; 240
    1a98:	16 e0       	ldi	r17, 0x06	; 6
    1a9a:	5f c0       	rjmp	.+190    	; 0x1b5a <menu+0xec>
    1a9c:	0e 94 86 0c 	call	0x190c	; 0x190c <clrscr>
    1aa0:	61 e0       	ldi	r22, 0x01	; 1
    1aa2:	81 e0       	ldi	r24, 0x01	; 1
    1aa4:	0e 94 55 0c 	call	0x18aa	; 0x18aa <gotoxy>
    1aa8:	c6 01       	movw	r24, r12
    1aaa:	0e 94 44 0c 	call	0x1888	; 0x1888 <UART0_putsf>
    1aae:	0e 94 95 0a 	call	0x152a	; 0x152a <UART0_getch>
    1ab2:	82 36       	cpi	r24, 0x62	; 98
    1ab4:	a1 f0       	breq	.+40     	; 0x1ade <menu+0x70>
    1ab6:	83 36       	cpi	r24, 0x63	; 99
    1ab8:	09 f4       	brne	.+2      	; 0x1abc <menu+0x4e>
    1aba:	47 c0       	rjmp	.+142    	; 0x1b4a <menu+0xdc>
    1abc:	81 36       	cpi	r24, 0x61	; 97
    1abe:	09 f0       	breq	.+2      	; 0x1ac2 <menu+0x54>
    1ac0:	4a c0       	rjmp	.+148    	; 0x1b56 <menu+0xe8>
    1ac2:	0e 94 86 0c 	call	0x190c	; 0x190c <clrscr>
    1ac6:	c8 01       	movw	r24, r16
    1ac8:	0e 94 44 0c 	call	0x1888	; 0x1888 <UART0_putsf>
    1acc:	6a e0       	ldi	r22, 0x0A	; 10
    1ace:	86 e0       	ldi	r24, 0x06	; 6
    1ad0:	0e 94 55 0c 	call	0x18aa	; 0x18aa <gotoxy>
    1ad4:	85 e1       	ldi	r24, 0x15	; 21
    1ad6:	9f e0       	ldi	r25, 0x0F	; 15
    1ad8:	0e 94 ca 0c 	call	0x1994	; 0x1994 <TextSave>
    1adc:	3c c0       	rjmp	.+120    	; 0x1b56 <menu+0xe8>
    1ade:	0e 94 86 0c 	call	0x190c	; 0x190c <clrscr>
    1ae2:	61 e0       	ldi	r22, 0x01	; 1
    1ae4:	81 e0       	ldi	r24, 0x01	; 1
    1ae6:	0e 94 55 0c 	call	0x18aa	; 0x18aa <gotoxy>
    1aea:	ce 01       	movw	r24, r28
    1aec:	0e 94 44 0c 	call	0x1888	; 0x1888 <UART0_putsf>
    1af0:	0e 94 1f 0b 	call	0x163e	; 0x163e <Timer2_Flag>
    1af4:	88 23       	and	r24, r24
    1af6:	41 f0       	breq	.+16     	; 0x1b08 <menu+0x9a>
    1af8:	66 e0       	ldi	r22, 0x06	; 6
    1afa:	86 e0       	ldi	r24, 0x06	; 6
    1afc:	0e 94 55 0c 	call	0x18aa	; 0x18aa <gotoxy>
    1b00:	0e 94 58 0b 	call	0x16b0	; 0x16b0 <Clock_Update>
    1b04:	0e 94 f7 0b 	call	0x17ee	; 0x17ee <Clock_Display>
    1b08:	0e 94 a8 0a 	call	0x1550	; 0x1550 <UART0_kbhit>
    1b0c:	8d 30       	cpi	r24, 0x0D	; 13
    1b0e:	c1 f4       	brne	.+48     	; 0x1b40 <menu+0xd2>
    1b10:	0e 94 86 0c 	call	0x190c	; 0x190c <clrscr>
    1b14:	61 e0       	ldi	r22, 0x01	; 1
    1b16:	81 e0       	ldi	r24, 0x01	; 1
    1b18:	0e 94 55 0c 	call	0x18aa	; 0x18aa <gotoxy>
    1b1c:	c7 01       	movw	r24, r14
    1b1e:	0e 94 44 0c 	call	0x1888	; 0x1888 <UART0_putsf>
    1b22:	66 e0       	ldi	r22, 0x06	; 6
    1b24:	86 e0       	ldi	r24, 0x06	; 6
    1b26:	0e 94 55 0c 	call	0x18aa	; 0x18aa <gotoxy>
    1b2a:	0e 94 93 0c 	call	0x1926	; 0x1926 <config_clock>
    1b2e:	0e 94 86 0c 	call	0x190c	; 0x190c <clrscr>
    1b32:	61 e0       	ldi	r22, 0x01	; 1
    1b34:	81 e0       	ldi	r24, 0x01	; 1
    1b36:	0e 94 55 0c 	call	0x18aa	; 0x18aa <gotoxy>
    1b3a:	ce 01       	movw	r24, r28
    1b3c:	0e 94 44 0c 	call	0x1888	; 0x1888 <UART0_putsf>
    1b40:	0e 94 a8 0a 	call	0x1550	; 0x1550 <UART0_kbhit>
    1b44:	8b 31       	cpi	r24, 0x1B	; 27
    1b46:	a1 f6       	brne	.-88     	; 0x1af0 <menu+0x82>
    1b48:	06 c0       	rjmp	.+12     	; 0x1b56 <menu+0xe8>
    1b4a:	81 e0       	ldi	r24, 0x01	; 1
    1b4c:	80 93 c5 05 	sts	0x05C5, r24
    1b50:	0e 94 86 0c 	call	0x190c	; 0x190c <clrscr>
    1b54:	02 c0       	rjmp	.+4      	; 0x1b5a <menu+0xec>
    1b56:	10 92 c5 05 	sts	0x05C5, r1
    1b5a:	80 91 c5 05 	lds	r24, 0x05C5
    1b5e:	88 23       	and	r24, r24
    1b60:	09 f4       	brne	.+2      	; 0x1b64 <menu+0xf6>
    1b62:	9c cf       	rjmp	.-200    	; 0x1a9c <menu+0x2e>
    1b64:	df 91       	pop	r29
    1b66:	cf 91       	pop	r28
    1b68:	1f 91       	pop	r17
    1b6a:	0f 91       	pop	r16
    1b6c:	ff 90       	pop	r15
    1b6e:	ef 90       	pop	r14
    1b70:	df 90       	pop	r13
    1b72:	cf 90       	pop	r12
    1b74:	08 95       	ret

00001b76 <__udivmodqi4>:
    1b76:	99 1b       	sub	r25, r25
    1b78:	79 e0       	ldi	r23, 0x09	; 9
    1b7a:	04 c0       	rjmp	.+8      	; 0x1b84 <__udivmodqi4_ep>

00001b7c <__udivmodqi4_loop>:
    1b7c:	99 1f       	adc	r25, r25
    1b7e:	96 17       	cp	r25, r22
    1b80:	08 f0       	brcs	.+2      	; 0x1b84 <__udivmodqi4_ep>
    1b82:	96 1b       	sub	r25, r22

00001b84 <__udivmodqi4_ep>:
    1b84:	88 1f       	adc	r24, r24
    1b86:	7a 95       	dec	r23
    1b88:	c9 f7       	brne	.-14     	; 0x1b7c <__udivmodqi4_loop>
    1b8a:	80 95       	com	r24
    1b8c:	08 95       	ret

00001b8e <__divmodhi4>:
    1b8e:	97 fb       	bst	r25, 7
    1b90:	09 2e       	mov	r0, r25
    1b92:	07 26       	eor	r0, r23
    1b94:	0a d0       	rcall	.+20     	; 0x1baa <__divmodhi4_neg1>
    1b96:	77 fd       	sbrc	r23, 7
    1b98:	04 d0       	rcall	.+8      	; 0x1ba2 <__divmodhi4_neg2>
    1b9a:	0c d0       	rcall	.+24     	; 0x1bb4 <__udivmodhi4>
    1b9c:	06 d0       	rcall	.+12     	; 0x1baa <__divmodhi4_neg1>
    1b9e:	00 20       	and	r0, r0
    1ba0:	1a f4       	brpl	.+6      	; 0x1ba8 <__divmodhi4_exit>

00001ba2 <__divmodhi4_neg2>:
    1ba2:	70 95       	com	r23
    1ba4:	61 95       	neg	r22
    1ba6:	7f 4f       	sbci	r23, 0xFF	; 255

00001ba8 <__divmodhi4_exit>:
    1ba8:	08 95       	ret

00001baa <__divmodhi4_neg1>:
    1baa:	f6 f7       	brtc	.-4      	; 0x1ba8 <__divmodhi4_exit>
    1bac:	90 95       	com	r25
    1bae:	81 95       	neg	r24
    1bb0:	9f 4f       	sbci	r25, 0xFF	; 255
    1bb2:	08 95       	ret

00001bb4 <__udivmodhi4>:
    1bb4:	aa 1b       	sub	r26, r26
    1bb6:	bb 1b       	sub	r27, r27
    1bb8:	51 e1       	ldi	r21, 0x11	; 17
    1bba:	07 c0       	rjmp	.+14     	; 0x1bca <__udivmodhi4_ep>

00001bbc <__udivmodhi4_loop>:
    1bbc:	aa 1f       	adc	r26, r26
    1bbe:	bb 1f       	adc	r27, r27
    1bc0:	a6 17       	cp	r26, r22
    1bc2:	b7 07       	cpc	r27, r23
    1bc4:	10 f0       	brcs	.+4      	; 0x1bca <__udivmodhi4_ep>
    1bc6:	a6 1b       	sub	r26, r22
    1bc8:	b7 0b       	sbc	r27, r23

00001bca <__udivmodhi4_ep>:
    1bca:	88 1f       	adc	r24, r24
    1bcc:	99 1f       	adc	r25, r25
    1bce:	5a 95       	dec	r21
    1bd0:	a9 f7       	brne	.-22     	; 0x1bbc <__udivmodhi4_loop>
    1bd2:	80 95       	com	r24
    1bd4:	90 95       	com	r25
    1bd6:	bc 01       	movw	r22, r24
    1bd8:	cd 01       	movw	r24, r26
    1bda:	08 95       	ret

00001bdc <_exit>:
    1bdc:	ff cf       	rjmp	.-2      	; 0x1bdc <_exit>
