
LedMatrixTest.elf:     file format elf32-avr

Sections:
Idx Name          Size      VMA       LMA       File off  Algn
  0 .data         00000154  00800100  0000154e  000015c2  2**0
                  CONTENTS, ALLOC, LOAD, DATA
  1 .text         0000154e  00000000  00000000  00000074  2**1
                  CONTENTS, ALLOC, LOAD, READONLY, CODE
  2 .bss          0000041d  00800254  000016a2  00001716  2**0
                  ALLOC
  3 .stab         00000360  00000000  00000000  00001718  2**2
                  CONTENTS, READONLY, DEBUGGING
  4 .stabstr      0000005f  00000000  00000000  00001a78  2**0
                  CONTENTS, READONLY, DEBUGGING
  5 .debug_aranges 00000140  00000000  00000000  00001ad7  2**0
                  CONTENTS, READONLY, DEBUGGING
  6 .debug_pubnames 000003c1  00000000  00000000  00001c17  2**0
                  CONTENTS, READONLY, DEBUGGING
  7 .debug_info   0000112f  00000000  00000000  00001fd8  2**0
                  CONTENTS, READONLY, DEBUGGING
  8 .debug_abbrev 0000079c  00000000  00000000  00003107  2**0
                  CONTENTS, READONLY, DEBUGGING
  9 .debug_line   000011c0  00000000  00000000  000038a3  2**0
                  CONTENTS, READONLY, DEBUGGING
 10 .debug_frame  00000300  00000000  00000000  00004a64  2**2
                  CONTENTS, READONLY, DEBUGGING
 11 .debug_str    000004a8  00000000  00000000  00004d64  2**0
                  CONTENTS, READONLY, DEBUGGING
 12 .debug_loc    000006df  00000000  00000000  0000520c  2**0
                  CONTENTS, READONLY, DEBUGGING
Disassembly of section .text:

00000000 <__vectors>:
       0:	0c 94 60 03 	jmp	0x6c0	; 0x6c0 <__ctors_end>
       4:	0c 94 7b 03 	jmp	0x6f6	; 0x6f6 <__bad_interrupt>
       8:	0c 94 7b 03 	jmp	0x6f6	; 0x6f6 <__bad_interrupt>
       c:	0c 94 7b 03 	jmp	0x6f6	; 0x6f6 <__bad_interrupt>
      10:	0c 94 7b 03 	jmp	0x6f6	; 0x6f6 <__bad_interrupt>
      14:	0c 94 7b 03 	jmp	0x6f6	; 0x6f6 <__bad_interrupt>
      18:	0c 94 7b 03 	jmp	0x6f6	; 0x6f6 <__bad_interrupt>
      1c:	0c 94 c8 08 	jmp	0x1190	; 0x1190 <__vector_7>
      20:	0c 94 7b 03 	jmp	0x6f6	; 0x6f6 <__bad_interrupt>
      24:	0c 94 7b 03 	jmp	0x6f6	; 0x6f6 <__bad_interrupt>
      28:	0c 94 7b 03 	jmp	0x6f6	; 0x6f6 <__bad_interrupt>
      2c:	0c 94 7b 03 	jmp	0x6f6	; 0x6f6 <__bad_interrupt>
      30:	0c 94 7b 03 	jmp	0x6f6	; 0x6f6 <__bad_interrupt>
      34:	0c 94 7c 04 	jmp	0x8f8	; 0x8f8 <__vector_13>
      38:	0c 94 7b 03 	jmp	0x6f6	; 0x6f6 <__bad_interrupt>
      3c:	0c 94 7b 03 	jmp	0x6f6	; 0x6f6 <__bad_interrupt>
      40:	0c 94 7b 03 	jmp	0x6f6	; 0x6f6 <__bad_interrupt>
      44:	0c 94 7b 03 	jmp	0x6f6	; 0x6f6 <__bad_interrupt>
      48:	0c 94 7b 03 	jmp	0x6f6	; 0x6f6 <__bad_interrupt>
      4c:	0c 94 7b 03 	jmp	0x6f6	; 0x6f6 <__bad_interrupt>
      50:	0c 94 7b 03 	jmp	0x6f6	; 0x6f6 <__bad_interrupt>
      54:	0c 94 7b 03 	jmp	0x6f6	; 0x6f6 <__bad_interrupt>
      58:	0c 94 7b 03 	jmp	0x6f6	; 0x6f6 <__bad_interrupt>
      5c:	0c 94 7b 03 	jmp	0x6f6	; 0x6f6 <__bad_interrupt>
      60:	0c 94 7b 03 	jmp	0x6f6	; 0x6f6 <__bad_interrupt>
      64:	0c 94 7b 03 	jmp	0x6f6	; 0x6f6 <__bad_interrupt>

00000068 <letters>:
      68:	08 08 00 08 08 08 00 08 00 08 08 00 00 00 08 08     ................
      78:	00 08 00 08 08 00 08 00 08 08 00 00 00 08 08 00     ................
      88:	08 00 08 08 00 00 08 08 08 00 08 00 08 08 00 00     ................
      98:	00 08 08 08 00 00 08 08 00 08 08 08 08 00 08 08     ................
      a8:	08 08 00 08 08 08 08 08 00 00 08 08 00 00 08 08     ................
      b8:	08 00 08 00 08 08 00 08 00 08 08 00 08 00 08 08     ................
      c8:	00 00 08 08 08 00 00 00 08 08 00 08 08 08 08 00     ................
      d8:	00 00 08 08 00 08 08 08 08 00 00 00 08 08 00 00     ................
      e8:	00 08 08 00 08 08 08 08 00 00 00 08 08 00 08 08     ................
      f8:	08 08 00 08 08 08 08 08 00 00 08 08 00 08 08 08     ................
     108:	08 00 08 00 00 08 00 08 08 00 08 08 00 08 00 08     ................
     118:	00 08 00 08 08 00 08 00 08 08 00 00 00 08 08 00     ................
     128:	08 00 08 08 00 08 00 08 08 00 00 00 08 08 08 00     ................
     138:	08 08 08 08 00 08 08 08 08 00 08 08 08 00 00 00     ................
     148:	08 08 08 08 00 08 08 08 08 00 08 08 08 08 00 08     ................
     158:	08 00 08 00 08 08 00 00 00 08 08 00 08 00 08 08     ................
     168:	00 00 08 08 08 00 00 08 08 08 00 08 00 08 08 00     ................
     178:	08 00 08 08 00 08 08 08 08 00 08 08 08 08 00 08     ................
     188:	08 08 08 00 08 08 08 08 00 00 00 08 08 00 08 00     ................
     198:	08 08 00 00 00 08 08 00 08 00 08 08 00 08 00 08     ................
     1a8:	08 00 08 00 08 08 00 00 00 08 08 00 08 00 08 08     ................
     1b8:	00 08 00 08 08 00 08 00 08 08 00 08 00 08 08 00     ................
     1c8:	00 00 08 08 00 08 00 08 08 00 08 00 08 08 00 08     ................
     1d8:	00 08 08 00 00 00 08 08 00 00 00 08 08 00 08 00     ................
     1e8:	08 08 00 00 00 08 08 00 08 08 08 08 00 08 08 08     ................
     1f8:	08 00 00 00 08 08 00 08 00 08 08 00 00 00 08 08     ................
     208:	00 00 00 08 08 08 00 08 08 08 00 00 00 08 08 00     ................
     218:	08 00 08 08 00 00 08 08 08 00 08 00 08 08 00 08     ................
     228:	00 08 08 08 00 00 08 08 00 08 08 08 08 08 00 08     ................
     238:	08 08 08 08 00 08 08 00 00 08 08 08 00 00 00 08     ................
     248:	08 08 00 08 08 08 08 00 08 08 08 08 00 08 08 08     ................
     258:	08 00 08 08 08 00 08 00 08 08 00 08 00 08 08 00     ................
     268:	08 00 08 08 00 08 00 08 08 00 00 00 08 08 00 08     ................
     278:	00 08 08 00 08 00 08 08 00 08 00 08 08 00 08 00     ................
     288:	08 08 08 00 08 08 08 00 08 00 08 08 00 08 00 08     ................
     298:	08 00 08 00 08 08 00 00 00 08 08 00 08 00 08 08     ................
     2a8:	00 08 00 08 08 00 08 00 08 08 08 00 08 08 08 00     ................
     2b8:	08 00 08 08 00 08 00 08 08 00 08 00 08 08 00 08     ................
     2c8:	00 08 08 08 00 08 08 08 08 00 08 08 08 08 00 08     ................
     2d8:	08 08 00 00 00 08 08 08 08 00 08 08 08 00 08 08     ................
     2e8:	08 00 08 08 08 08 00 00 00 08 08 08 00 08 08 08     ................
     2f8:	00 08 00 08 08 08 00 00 08 08 00 08 00 08 08 08     ................
     308:	00 00 08 08 00 08 08 08 08 00 08 08 08 08 00 00     ................
     318:	00 08 08 00 08 00 08 08 00 00 00 08 08 08 08 08     ................
     328:	08 08 08 00 00 08 08 00 08 08 08 08 00 08 08 08     ................
     338:	08 08 00 00 08 08 08 08 00 08 08 08 08 00 08 08     ................
     348:	00 00 00 08 08 00 08 00 08 08 00 00 08 08 08 08     ................
     358:	08 08 08 08 00 00 00 08 08 00 00 00 08 08 00 08     ................
     368:	08 08 08 00 00 00 08 08 08 00 00 08 08 00 08 08     ................
     378:	08 08 00 00 08 08 08 00 08 08 08 08 00 08 08 08     ................
     388:	08 00 00 00 08 08 00 08 00 08 08 00 00 00 08 08     ................
     398:	00 08 00 08 08 00 00 00 08 08 00 08 08 08 08 00     ................
     3a8:	08 08 08 08 00 00 00 08 08 00 08 00 08 08 00 08     ................
     3b8:	00 08 08 08 00 08 08 08 08 08 08 08 08 08 00 08     ................
     3c8:	08 08 08 00 08 08 08 08 00 08 08 08 08 08 08 08     ................
     3d8:	08 08 00 08 08 08 08 00 08 08 08 08 00 08 08 08     ................
     3e8:	00 00 08 08 08 08 08 08 08 08 00 08 00 08 08 00     ................
     3f8:	00 08 08 08 00 08 00 08 08 00 08 00 08 08 08 00     ................
     408:	08 08 08 08 00 08 08 08 08 00 08 08 08 08 00 08     ................
     418:	08 08 08 00 08 08 08 08 08 08 08 08 00 08 00 08     ................
     428:	08 00 00 00 08 08 00 08 00 08 08 00 08 00 08 08     ................
     438:	08 08 08 08 08 08 08 08 08 08 00 00 00 08 08 00     ................
     448:	08 00 08 08 00 08 00 08 08 08 08 08 08 08 08 08     ................
     458:	08 08 08 00 00 00 08 08 00 08 00 08 08 00 00 00     ................
     468:	08 08 08 08 08 08 08 00 00 08 08 08 00 08 00 08     ................
     478:	08 00 00 08 08 08 00 08 08 08 08 08 08 08 08 08     ................
     488:	00 00 00 08 08 00 08 00 08 08 00 00 00 08 08 08     ................
     498:	08 00 08 08 08 08 08 08 08 08 08 08 08 08 00 00     ................
     4a8:	00 08 08 00 08 08 08 08 00 08 08 08 08 08 08 08     ................
     4b8:	08 08 00 00 00 08 08 00 08 08 08 08 08 00 00 08     ................
     4c8:	08 00 00 00 08 08 08 00 08 08 08 00 00 00 08 08     ................
     4d8:	08 00 08 08 08 08 00 08 08 08 08 00 00 08 08 08     ................
     4e8:	08 08 08 08 08 08 08 08 08 00 08 00 08 08 00 08     ................
     4f8:	00 08 08 00 00 00 08 08 08 08 08 08 08 00 08 00     ................
     508:	08 08 00 08 00 08 08 00 08 00 08 08 08 00 08 08     ................
     518:	08 08 08 08 08 08 00 08 00 08 08 00 08 00 08 08     ................
     528:	00 00 00 08 08 00 08 00 08 08 08 08 08 08 08 08     ................
     538:	08 08 08 08 00 08 00 08 08 08 00 08 08 08 00 08     ................
     548:	00 08 08 08 08 08 08 08 00 08 00 08 08 00 08 00     ................
     558:	08 08 08 00 08 08 08 08 00 08 08 08 08 08 08 08     ................
     568:	08 00 00 00 08 08 08 00 08 08 08 00 08 08 08 08     ................
     578:	00 00 00 08 08 08 00 08 08 08 00 08 00 08 08 00     ................
     588:	08 00 08 08 00 08 00 08 08 08 00 08 08 08 08 00     ................
     598:	08 08 08 00 00 08 08 08 08 00 08 08 08 08 00 08     ................
     5a8:	08 08 00 00 00 08 08 00 00 00 08 08 08 08 00 08     ................
     5b8:	08 00 00 00 08 08 00 08 08 08 08 00 00 00 08 08     ................
     5c8:	00 00 00 08 08 08 08 00 08 08 00 00 00 08 08 08     ................
     5d8:	08 00 08 08 00 00 00 08 08 00 08 00 08 08 00 08     ................
     5e8:	00 08 08 00 00 00 08 08 08 08 00 08 08 08 08 00     ................
     5f8:	08 08 00 00 00 08 08 00 08 08 08 08 00 00 00 08     ................
     608:	08 08 08 00 08 08 00 00 00 08 08 00 00 00 08 08     ................
     618:	00 08 08 08 08 00 00 00 08 08 00 08 00 08 08 00     ................
     628:	00 00 08 08 00 00 00 08 08 08 08 00 08 08 08 08     ................
     638:	00 08 08 08 08 00 08 08 08 08 00 08 08 00 00 00     ................
     648:	08 08 00 08 00 08 08 08 00 08 08 08 00 08 00 08     ................
     658:	08 00 00 00 08 08 00 00 00 08 08 00 08 00 08 08     ................
     668:	00 00 00 08 08 08 08 00 08 08 08 08 00 08 08 08     ................
     678:	08 08 08 08 00 00 00 08 08 08 08 08 08 08 00 00     ................
     688:	00 08 08 08 08 08 08                                .......

0000068f <Title>:
     68f:	20 49 6e 74 72 6f 64 75 7a 63 61 20 65 6c 20 44      Introduzca el D
     69f:	69 72 2e 20 4e 6f 64 6f 20 28 62 79 74 65 29 20     ir. Nodo (byte) 
     6af:	79 20 70 72 65 73 69 6f 6e 65 20 65 6e 74 65 72     y presione enter
	...

000006c0 <__ctors_end>:
     6c0:	11 24       	eor	r1, r1
     6c2:	1f be       	out	0x3f, r1	; 63
     6c4:	cf ef       	ldi	r28, 0xFF	; 255
     6c6:	cd bf       	out	0x3d, r28	; 61

000006c8 <__do_copy_data>:
     6c8:	12 e0       	ldi	r17, 0x02	; 2
     6ca:	a0 e0       	ldi	r26, 0x00	; 0
     6cc:	b1 e0       	ldi	r27, 0x01	; 1
     6ce:	ee e4       	ldi	r30, 0x4E	; 78
     6d0:	f5 e1       	ldi	r31, 0x15	; 21
     6d2:	02 c0       	rjmp	.+4      	; 0x6d8 <.do_copy_data_start>

000006d4 <.do_copy_data_loop>:
     6d4:	05 90       	lpm	r0, Z+
     6d6:	0d 92       	st	X+, r0

000006d8 <.do_copy_data_start>:
     6d8:	a4 35       	cpi	r26, 0x54	; 84
     6da:	b1 07       	cpc	r27, r17
     6dc:	d9 f7       	brne	.-10     	; 0x6d4 <.do_copy_data_loop>

000006de <__do_clear_bss>:
     6de:	16 e0       	ldi	r17, 0x06	; 6
     6e0:	a4 e5       	ldi	r26, 0x54	; 84
     6e2:	b2 e0       	ldi	r27, 0x02	; 2
     6e4:	01 c0       	rjmp	.+2      	; 0x6e8 <.do_clear_bss_start>

000006e6 <.do_clear_bss_loop>:
     6e6:	1d 92       	st	X+, r1

000006e8 <.do_clear_bss_start>:
     6e8:	a1 37       	cpi	r26, 0x71	; 113
     6ea:	b1 07       	cpc	r27, r17
     6ec:	e1 f7       	brne	.-8      	; 0x6e6 <.do_clear_bss_loop>
     6ee:	0e 94 a8 03 	call	0x750	; 0x750 <main>
     6f2:	0c 94 a6 0a 	jmp	0x154c	; 0x154c <_exit>

000006f6 <__bad_interrupt>:
     6f6:	0c 94 00 00 	jmp	0	; 0x0 <__heap_end>

000006fa <cleanLatch>:
     6fa:	98 2f       	mov	r25, r24
     6fc:	5a 98       	cbi	0x0b, 2	; 11
     6fe:	5b 98       	cbi	0x0b, 3	; 11
     700:	5c 98       	cbi	0x0b, 4	; 11
     702:	5d 98       	cbi	0x0b, 5	; 11
     704:	5e 98       	cbi	0x0b, 6	; 11
     706:	5f 98       	cbi	0x0b, 7	; 11
     708:	10 92 58 02 	sts	0x0258, r1
     70c:	07 c0       	rjmp	.+14     	; 0x71c <cleanLatch+0x22>
     70e:	2b 98       	cbi	0x05, 3	; 5
     710:	2b 9a       	sbi	0x05, 3	; 5
     712:	80 91 58 02 	lds	r24, 0x0258
     716:	8f 5f       	subi	r24, 0xFF	; 255
     718:	80 93 58 02 	sts	0x0258, r24
     71c:	80 91 58 02 	lds	r24, 0x0258
     720:	89 17       	cp	r24, r25
     722:	a8 f3       	brcs	.-22     	; 0x70e <cleanLatch+0x14>
     724:	08 95       	ret

00000726 <SecondPassed>:
     726:	0f 93       	push	r16
     728:	1f 93       	push	r17
     72a:	08 2f       	mov	r16, r24
     72c:	16 2f       	mov	r17, r22
     72e:	2a 9a       	sbi	0x05, 2	; 5
     730:	47 e0       	ldi	r20, 0x07	; 7
     732:	0e 94 e2 04 	call	0x9c4	; 0x9c4 <paintPixel>
     736:	2a 98       	cbi	0x05, 2	; 5
     738:	0e 94 e2 07 	call	0xfc4	; 0xfc4 <Delay_20mS>
     73c:	2a 9a       	sbi	0x05, 2	; 5
     73e:	48 e0       	ldi	r20, 0x08	; 8
     740:	61 2f       	mov	r22, r17
     742:	80 2f       	mov	r24, r16
     744:	0e 94 e2 04 	call	0x9c4	; 0x9c4 <paintPixel>
     748:	2a 98       	cbi	0x05, 2	; 5
     74a:	1f 91       	pop	r17
     74c:	0f 91       	pop	r16
     74e:	08 95       	ret

00000750 <main>:
     750:	0f 93       	push	r16
     752:	8e e0       	ldi	r24, 0x0E	; 14
     754:	84 b9       	out	0x04, r24	; 4
     756:	8a e0       	ldi	r24, 0x0A	; 10
     758:	85 b9       	out	0x05, r24	; 5
     75a:	8f e0       	ldi	r24, 0x0F	; 15
     75c:	87 b9       	out	0x07, r24	; 7
     75e:	18 b8       	out	0x08, r1	; 8
     760:	8c ef       	ldi	r24, 0xFC	; 252
     762:	8a b9       	out	0x0a, r24	; 10
     764:	1b b8       	out	0x0b, r1	; 11
     766:	81 e0       	ldi	r24, 0x01	; 1
     768:	0e 94 07 08 	call	0x100e	; 0x100e <UART0_Init>
     76c:	8c e0       	ldi	r24, 0x0C	; 12
     76e:	80 93 56 02 	sts	0x0256, r24
     772:	83 e0       	ldi	r24, 0x03	; 3
     774:	80 93 57 02 	sts	0x0257, r24
     778:	0e 94 ab 08 	call	0x1156	; 0x1156 <Timer2_OneSecIni>
     77c:	0e 94 58 04 	call	0x8b0	; 0x8b0 <Timer1_Ini>
     780:	20 91 02 01 	lds	r18, 0x0102
     784:	30 e0       	ldi	r19, 0x00	; 0
     786:	60 91 01 01 	lds	r22, 0x0101
     78a:	70 e0       	ldi	r23, 0x00	; 0
     78c:	80 91 00 01 	lds	r24, 0x0100
     790:	41 e0       	ldi	r20, 0x01	; 1
     792:	50 e0       	ldi	r21, 0x00	; 0
     794:	90 e0       	ldi	r25, 0x00	; 0
     796:	0e 94 c6 06 	call	0xd8c	; 0xd8c <drawCircle>
     79a:	80 91 59 02 	lds	r24, 0x0259
     79e:	88 23       	and	r24, r24
     7a0:	e9 f4       	brne	.+58     	; 0x7dc <main+0x8c>
     7a2:	80 91 54 02 	lds	r24, 0x0254
     7a6:	90 91 55 02 	lds	r25, 0x0255
     7aa:	89 2b       	or	r24, r25
     7ac:	b9 f4       	brne	.+46     	; 0x7dc <main+0x8c>
     7ae:	e0 91 59 02 	lds	r30, 0x0259
     7b2:	f0 e0       	ldi	r31, 0x00	; 0
     7b4:	ee 0f       	add	r30, r30
     7b6:	ff 1f       	adc	r31, r31
     7b8:	ed 5f       	subi	r30, 0xFD	; 253
     7ba:	fe 4f       	sbci	r31, 0xFE	; 254
     7bc:	21 81       	ldd	r18, Z+1	; 0x01
     7be:	e0 91 59 02 	lds	r30, 0x0259
     7c2:	f0 e0       	ldi	r31, 0x00	; 0
     7c4:	ee 0f       	add	r30, r30
     7c6:	ff 1f       	adc	r31, r31
     7c8:	ed 5f       	subi	r30, 0xFD	; 253
     7ca:	fe 4f       	sbci	r31, 0xFE	; 254
     7cc:	40 81       	ld	r20, Z
     7ce:	60 91 01 01 	lds	r22, 0x0101
     7d2:	02 e0       	ldi	r16, 0x02	; 2
     7d4:	80 91 00 01 	lds	r24, 0x0100
     7d8:	0e 94 0e 06 	call	0xc1c	; 0xc1c <HourHand>
     7dc:	60 91 01 01 	lds	r22, 0x0101
     7e0:	70 e0       	ldi	r23, 0x00	; 0
     7e2:	80 91 00 01 	lds	r24, 0x0100
     7e6:	90 e0       	ldi	r25, 0x00	; 0
     7e8:	04 96       	adiw	r24, 0x04	; 4
     7ea:	04 e0       	ldi	r16, 0x04	; 4
     7ec:	9b 01       	movw	r18, r22
     7ee:	ac 01       	movw	r20, r24
     7f0:	03 97       	sbiw	r24, 0x03	; 3
     7f2:	0e 94 88 05 	call	0xb10	; 0xb10 <Line>
     7f6:	0e 94 c0 08 	call	0x1180	; 0x1180 <Timer2_Flag>
     7fa:	88 23       	and	r24, r24
     7fc:	09 f4       	brne	.+2      	; 0x800 <main+0xb0>
     7fe:	50 c0       	rjmp	.+160    	; 0x8a0 <main+0x150>
     800:	60 91 01 01 	lds	r22, 0x0101
     804:	80 91 00 01 	lds	r24, 0x0100
     808:	0e 94 93 03 	call	0x726	; 0x726 <SecondPassed>
     80c:	0e 94 f9 08 	call	0x11f2	; 0x11f2 <Clock_Update>
     810:	80 91 54 02 	lds	r24, 0x0254
     814:	90 91 55 02 	lds	r25, 0x0255
     818:	01 96       	adiw	r24, 0x01	; 1
     81a:	90 93 55 02 	sts	0x0255, r25
     81e:	80 93 54 02 	sts	0x0254, r24
     822:	80 91 58 02 	lds	r24, 0x0258
     826:	8f 5f       	subi	r24, 0xFF	; 255
     828:	80 93 58 02 	sts	0x0258, r24
     82c:	80 91 54 02 	lds	r24, 0x0254
     830:	90 91 55 02 	lds	r25, 0x0255
     834:	cc 97       	sbiw	r24, 0x3c	; 60
     836:	11 f5       	brne	.+68     	; 0x87c <main+0x12c>
     838:	80 91 59 02 	lds	r24, 0x0259
     83c:	8f 5f       	subi	r24, 0xFF	; 255
     83e:	80 93 59 02 	sts	0x0259, r24
     842:	e0 91 59 02 	lds	r30, 0x0259
     846:	f0 e0       	ldi	r31, 0x00	; 0
     848:	ee 0f       	add	r30, r30
     84a:	ff 1f       	adc	r31, r31
     84c:	ed 5f       	subi	r30, 0xFD	; 253
     84e:	fe 4f       	sbci	r31, 0xFE	; 254
     850:	21 81       	ldd	r18, Z+1	; 0x01
     852:	e0 91 59 02 	lds	r30, 0x0259
     856:	f0 e0       	ldi	r31, 0x00	; 0
     858:	ee 0f       	add	r30, r30
     85a:	ff 1f       	adc	r31, r31
     85c:	ed 5f       	subi	r30, 0xFD	; 253
     85e:	fe 4f       	sbci	r31, 0xFE	; 254
     860:	40 81       	ld	r20, Z
     862:	60 91 01 01 	lds	r22, 0x0101
     866:	02 e0       	ldi	r16, 0x02	; 2
     868:	80 91 00 01 	lds	r24, 0x0100
     86c:	0e 94 0e 06 	call	0xc1c	; 0xc1c <HourHand>
     870:	81 e0       	ldi	r24, 0x01	; 1
     872:	90 e0       	ldi	r25, 0x00	; 0
     874:	90 93 55 02 	sts	0x0255, r25
     878:	80 93 54 02 	sts	0x0254, r24
     87c:	80 91 58 02 	lds	r24, 0x0258
     880:	88 30       	cpi	r24, 0x08	; 8
     882:	19 f4       	brne	.+6      	; 0x88a <main+0x13a>
     884:	81 e0       	ldi	r24, 0x01	; 1
     886:	80 93 58 02 	sts	0x0258, r24
     88a:	80 91 59 02 	lds	r24, 0x0259
     88e:	8c 30       	cpi	r24, 0x0C	; 12
     890:	39 f4       	brne	.+14     	; 0x8a0 <main+0x150>
     892:	80 91 56 02 	lds	r24, 0x0256
     896:	8f 5f       	subi	r24, 0xFF	; 255
     898:	80 93 56 02 	sts	0x0256, r24
     89c:	10 92 59 02 	sts	0x0259, r1
     8a0:	80 91 57 02 	lds	r24, 0x0257
     8a4:	8c 30       	cpi	r24, 0x0C	; 12
     8a6:	09 f0       	breq	.+2      	; 0x8aa <main+0x15a>
     8a8:	6b cf       	rjmp	.-298    	; 0x780 <main+0x30>
     8aa:	10 92 57 02 	sts	0x0257, r1
     8ae:	68 cf       	rjmp	.-304    	; 0x780 <main+0x30>

000008b0 <Timer1_Ini>:
     8b0:	e0 e8       	ldi	r30, 0x80	; 128
     8b2:	f0 e0       	ldi	r31, 0x00	; 0
     8b4:	80 81       	ld	r24, Z
     8b6:	82 60       	ori	r24, 0x02	; 2
     8b8:	80 83       	st	Z, r24
     8ba:	e1 e8       	ldi	r30, 0x81	; 129
     8bc:	f0 e0       	ldi	r31, 0x00	; 0
     8be:	80 81       	ld	r24, Z
     8c0:	89 61       	ori	r24, 0x19	; 25
     8c2:	80 83       	st	Z, r24
     8c4:	84 e6       	ldi	r24, 0x64	; 100
     8c6:	90 e0       	ldi	r25, 0x00	; 0
     8c8:	90 93 87 00 	sts	0x0087, r25
     8cc:	80 93 86 00 	sts	0x0086, r24
     8d0:	ef e6       	ldi	r30, 0x6F	; 111
     8d2:	f0 e0       	ldi	r31, 0x00	; 0
     8d4:	80 81       	ld	r24, Z
     8d6:	81 60       	ori	r24, 0x01	; 1
     8d8:	80 83       	st	Z, r24
     8da:	78 94       	sei
     8dc:	08 95       	ret

000008de <Timer1_Flag>:
     8de:	80 91 5a 02 	lds	r24, 0x025A
     8e2:	88 23       	and	r24, r24
     8e4:	19 f4       	brne	.+6      	; 0x8ec <Timer1_Flag+0xe>
     8e6:	80 e0       	ldi	r24, 0x00	; 0
     8e8:	90 e0       	ldi	r25, 0x00	; 0
     8ea:	08 95       	ret
     8ec:	10 92 5a 02 	sts	0x025A, r1
     8f0:	2b 9a       	sbi	0x05, 3	; 5
     8f2:	81 e0       	ldi	r24, 0x01	; 1
     8f4:	90 e0       	ldi	r25, 0x00	; 0
     8f6:	08 95       	ret

000008f8 <__vector_13>:
     8f8:	1f 92       	push	r1
     8fa:	0f 92       	push	r0
     8fc:	0f b6       	in	r0, 0x3f	; 63
     8fe:	0f 92       	push	r0
     900:	11 24       	eor	r1, r1
     902:	2f 93       	push	r18
     904:	3f 93       	push	r19
     906:	4f 93       	push	r20
     908:	5f 93       	push	r21
     90a:	6f 93       	push	r22
     90c:	7f 93       	push	r23
     90e:	8f 93       	push	r24
     910:	9f 93       	push	r25
     912:	af 93       	push	r26
     914:	bf 93       	push	r27
     916:	ef 93       	push	r30
     918:	ff 93       	push	r31
     91a:	0e 94 9d 07 	call	0xf3a	; 0xf3a <Display>
     91e:	86 b3       	in	r24, 0x16	; 22
     920:	86 bb       	out	0x16, r24	; 22
     922:	ff 91       	pop	r31
     924:	ef 91       	pop	r30
     926:	bf 91       	pop	r27
     928:	af 91       	pop	r26
     92a:	9f 91       	pop	r25
     92c:	8f 91       	pop	r24
     92e:	7f 91       	pop	r23
     930:	6f 91       	pop	r22
     932:	5f 91       	pop	r21
     934:	4f 91       	pop	r20
     936:	3f 91       	pop	r19
     938:	2f 91       	pop	r18
     93a:	0f 90       	pop	r0
     93c:	0f be       	out	0x3f, r0	; 63
     93e:	0f 90       	pop	r0
     940:	1f 90       	pop	r1
     942:	18 95       	reti

00000944 <setColorPixel>:
     944:	84 30       	cpi	r24, 0x04	; 4
     946:	f9 f0       	breq	.+62     	; 0x986 <setColorPixel+0x42>
     948:	85 30       	cpi	r24, 0x05	; 5
     94a:	38 f4       	brcc	.+14     	; 0x95a <setColorPixel+0x16>
     94c:	82 30       	cpi	r24, 0x02	; 2
     94e:	89 f0       	breq	.+34     	; 0x972 <setColorPixel+0x2e>
     950:	83 30       	cpi	r24, 0x03	; 3
     952:	a0 f4       	brcc	.+40     	; 0x97c <setColorPixel+0x38>
     954:	81 30       	cpi	r24, 0x01	; 1
     956:	79 f5       	brne	.+94     	; 0x9b6 <setColorPixel+0x72>
     958:	07 c0       	rjmp	.+14     	; 0x968 <setColorPixel+0x24>
     95a:	86 30       	cpi	r24, 0x06	; 6
     95c:	01 f1       	breq	.+64     	; 0x99e <setColorPixel+0x5a>
     95e:	86 30       	cpi	r24, 0x06	; 6
     960:	c0 f0       	brcs	.+48     	; 0x992 <setColorPixel+0x4e>
     962:	87 30       	cpi	r24, 0x07	; 7
     964:	41 f5       	brne	.+80     	; 0x9b6 <setColorPixel+0x72>
     966:	20 c0       	rjmp	.+64     	; 0x9a8 <setColorPixel+0x64>
     968:	5a 9a       	sbi	0x0b, 2	; 11
     96a:	5b 98       	cbi	0x0b, 3	; 11
     96c:	5c 98       	cbi	0x0b, 4	; 11
     96e:	5d 9a       	sbi	0x0b, 5	; 11
     970:	26 c0       	rjmp	.+76     	; 0x9be <setColorPixel+0x7a>
     972:	5a 98       	cbi	0x0b, 2	; 11
     974:	5b 9a       	sbi	0x0b, 3	; 11
     976:	5c 98       	cbi	0x0b, 4	; 11
     978:	5d 98       	cbi	0x0b, 5	; 11
     97a:	09 c0       	rjmp	.+18     	; 0x98e <setColorPixel+0x4a>
     97c:	5a 98       	cbi	0x0b, 2	; 11
     97e:	5b 98       	cbi	0x0b, 3	; 11
     980:	5c 9a       	sbi	0x0b, 4	; 11
     982:	5d 98       	cbi	0x0b, 5	; 11
     984:	0a c0       	rjmp	.+20     	; 0x99a <setColorPixel+0x56>
     986:	5a 9a       	sbi	0x0b, 2	; 11
     988:	5b 9a       	sbi	0x0b, 3	; 11
     98a:	5c 98       	cbi	0x0b, 4	; 11
     98c:	5d 9a       	sbi	0x0b, 5	; 11
     98e:	5e 9a       	sbi	0x0b, 6	; 11
     990:	17 c0       	rjmp	.+46     	; 0x9c0 <setColorPixel+0x7c>
     992:	5a 9a       	sbi	0x0b, 2	; 11
     994:	5b 98       	cbi	0x0b, 3	; 11
     996:	5c 9a       	sbi	0x0b, 4	; 11
     998:	5d 9a       	sbi	0x0b, 5	; 11
     99a:	5e 98       	cbi	0x0b, 6	; 11
     99c:	0a c0       	rjmp	.+20     	; 0x9b2 <setColorPixel+0x6e>
     99e:	5a 98       	cbi	0x0b, 2	; 11
     9a0:	5b 9a       	sbi	0x0b, 3	; 11
     9a2:	5c 9a       	sbi	0x0b, 4	; 11
     9a4:	5d 98       	cbi	0x0b, 5	; 11
     9a6:	04 c0       	rjmp	.+8      	; 0x9b0 <setColorPixel+0x6c>
     9a8:	5a 9a       	sbi	0x0b, 2	; 11
     9aa:	5b 9a       	sbi	0x0b, 3	; 11
     9ac:	5c 9a       	sbi	0x0b, 4	; 11
     9ae:	5d 9a       	sbi	0x0b, 5	; 11
     9b0:	5e 9a       	sbi	0x0b, 6	; 11
     9b2:	5f 9a       	sbi	0x0b, 7	; 11
     9b4:	08 95       	ret
     9b6:	5a 98       	cbi	0x0b, 2	; 11
     9b8:	5b 98       	cbi	0x0b, 3	; 11
     9ba:	5c 98       	cbi	0x0b, 4	; 11
     9bc:	5d 98       	cbi	0x0b, 5	; 11
     9be:	5e 98       	cbi	0x0b, 6	; 11
     9c0:	5f 98       	cbi	0x0b, 7	; 11
     9c2:	08 95       	ret

000009c4 <paintPixel>:
     9c4:	e6 2f       	mov	r30, r22
     9c6:	2b e5       	ldi	r18, 0x5B	; 91
     9c8:	32 e0       	ldi	r19, 0x02	; 2
     9ca:	30 93 68 06 	sts	0x0668, r19
     9ce:	20 93 67 06 	sts	0x0667, r18
     9d2:	f0 e0       	ldi	r31, 0x00	; 0
     9d4:	95 e0       	ldi	r25, 0x05	; 5
     9d6:	ee 0f       	add	r30, r30
     9d8:	ff 1f       	adc	r31, r31
     9da:	9a 95       	dec	r25
     9dc:	e1 f7       	brne	.-8      	; 0x9d6 <paintPixel+0x12>
     9de:	e8 0f       	add	r30, r24
     9e0:	f1 1d       	adc	r31, r1
     9e2:	e2 0f       	add	r30, r18
     9e4:	f3 1f       	adc	r31, r19
     9e6:	40 83       	st	Z, r20
     9e8:	08 95       	ret

000009ea <drawLetter>:
     9ea:	8f 92       	push	r8
     9ec:	9f 92       	push	r9
     9ee:	af 92       	push	r10
     9f0:	bf 92       	push	r11
     9f2:	cf 92       	push	r12
     9f4:	df 92       	push	r13
     9f6:	ef 92       	push	r14
     9f8:	ff 92       	push	r15
     9fa:	0f 93       	push	r16
     9fc:	1f 93       	push	r17
     9fe:	cf 93       	push	r28
     a00:	df 93       	push	r29
     a02:	cd b7       	in	r28, 0x3d	; 61
     a04:	de b7       	in	r29, 0x3e	; 62
     a06:	21 97       	sbiw	r28, 0x01	; 1
     a08:	0f b6       	in	r0, 0x3f	; 63
     a0a:	f8 94       	cli
     a0c:	de bf       	out	0x3e, r29	; 62
     a0e:	0f be       	out	0x3f, r0	; 63
     a10:	cd bf       	out	0x3d, r28	; 61
     a12:	a8 2e       	mov	r10, r24
     a14:	b6 2e       	mov	r11, r22
     a16:	c0 2e       	mov	r12, r16
     a18:	22 23       	and	r18, r18
     a1a:	51 f4       	brne	.+20     	; 0xa30 <drawLetter+0x46>
     a1c:	ca 01       	movw	r24, r20
     a1e:	88 0f       	add	r24, r24
     a20:	99 1f       	adc	r25, r25
     a22:	88 0f       	add	r24, r24
     a24:	99 1f       	adc	r25, r25
     a26:	48 0f       	add	r20, r24
     a28:	59 1f       	adc	r21, r25
     a2a:	45 54       	subi	r20, 0x45	; 69
     a2c:	51 40       	sbci	r21, 0x01	; 1
     a2e:	23 c0       	rjmp	.+70     	; 0xa76 <drawLetter+0x8c>
     a30:	21 30       	cpi	r18, 0x01	; 1
     a32:	51 f4       	brne	.+20     	; 0xa48 <drawLetter+0x5e>
     a34:	ca 01       	movw	r24, r20
     a36:	88 0f       	add	r24, r24
     a38:	99 1f       	adc	r25, r25
     a3a:	88 0f       	add	r24, r24
     a3c:	99 1f       	adc	r25, r25
     a3e:	48 0f       	add	r20, r24
     a40:	59 1f       	adc	r21, r25
     a42:	43 56       	subi	r20, 0x63	; 99
     a44:	51 40       	sbci	r21, 0x01	; 1
     a46:	17 c0       	rjmp	.+46     	; 0xa76 <drawLetter+0x8c>
     a48:	22 30       	cpi	r18, 0x02	; 2
     a4a:	51 f4       	brne	.+20     	; 0xa60 <drawLetter+0x76>
     a4c:	ca 01       	movw	r24, r20
     a4e:	88 0f       	add	r24, r24
     a50:	99 1f       	adc	r25, r25
     a52:	88 0f       	add	r24, r24
     a54:	99 1f       	adc	r25, r25
     a56:	48 0f       	add	r20, r24
     a58:	59 1f       	adc	r21, r25
     a5a:	4c 5f       	subi	r20, 0xFC	; 252
     a5c:	5e 4f       	sbci	r21, 0xFE	; 254
     a5e:	0b c0       	rjmp	.+22     	; 0xa76 <drawLetter+0x8c>
     a60:	23 30       	cpi	r18, 0x03	; 3
     a62:	49 f4       	brne	.+18     	; 0xa76 <drawLetter+0x8c>
     a64:	ca 01       	movw	r24, r20
     a66:	88 0f       	add	r24, r24
     a68:	99 1f       	adc	r25, r25
     a6a:	88 0f       	add	r24, r24
     a6c:	99 1f       	adc	r25, r25
     a6e:	48 0f       	add	r20, r24
     a70:	59 1f       	adc	r21, r25
     a72:	4c 5e       	subi	r20, 0xEC	; 236
     a74:	5f 4f       	sbci	r21, 0xFF	; 255
     a76:	4a 01       	movw	r8, r20
     a78:	88 0c       	add	r8, r8
     a7a:	99 1c       	adc	r9, r9
     a7c:	88 0c       	add	r8, r8
     a7e:	99 1c       	adc	r9, r9
     a80:	84 0e       	add	r8, r20
     a82:	95 1e       	adc	r9, r21
     a84:	28 e6       	ldi	r18, 0x68	; 104
     a86:	30 e0       	ldi	r19, 0x00	; 0
     a88:	82 0e       	add	r8, r18
     a8a:	93 1e       	adc	r9, r19
     a8c:	90 e0       	ldi	r25, 0x00	; 0
     a8e:	1b c0       	rjmp	.+54     	; 0xac6 <drawLetter+0xdc>
     a90:	2a 98       	cbi	0x05, 2	; 5
     a92:	f7 01       	movw	r30, r14
     a94:	44 91       	lpm	r20, Z
     a96:	4c 0d       	add	r20, r12
     a98:	6d 2d       	mov	r22, r13
     a9a:	8a 2d       	mov	r24, r10
     a9c:	80 1b       	sub	r24, r16
     a9e:	99 83       	std	Y+1, r25	; 0x01
     aa0:	0e 94 e2 04 	call	0x9c4	; 0x9c4 <paintPixel>
     aa4:	2a 9a       	sbi	0x05, 2	; 5
     aa6:	0f 5f       	subi	r16, 0xFF	; 255
     aa8:	1f 4f       	sbci	r17, 0xFF	; 255
     aaa:	08 94       	sec
     aac:	e1 1c       	adc	r14, r1
     aae:	f1 1c       	adc	r15, r1
     ab0:	99 81       	ldd	r25, Y+1	; 0x01
     ab2:	05 30       	cpi	r16, 0x05	; 5
     ab4:	11 05       	cpc	r17, r1
     ab6:	61 f7       	brne	.-40     	; 0xa90 <drawLetter+0xa6>
     ab8:	9f 5f       	subi	r25, 0xFF	; 255
     aba:	25 e0       	ldi	r18, 0x05	; 5
     abc:	30 e0       	ldi	r19, 0x00	; 0
     abe:	82 0e       	add	r8, r18
     ac0:	93 1e       	adc	r9, r19
     ac2:	95 30       	cpi	r25, 0x05	; 5
     ac4:	31 f0       	breq	.+12     	; 0xad2 <drawLetter+0xe8>
     ac6:	74 01       	movw	r14, r8
     ac8:	00 e0       	ldi	r16, 0x00	; 0
     aca:	10 e0       	ldi	r17, 0x00	; 0
     acc:	d9 2e       	mov	r13, r25
     ace:	db 0c       	add	r13, r11
     ad0:	df cf       	rjmp	.-66     	; 0xa90 <drawLetter+0xa6>
     ad2:	21 96       	adiw	r28, 0x01	; 1
     ad4:	0f b6       	in	r0, 0x3f	; 63
     ad6:	f8 94       	cli
     ad8:	de bf       	out	0x3e, r29	; 62
     ada:	0f be       	out	0x3f, r0	; 63
     adc:	cd bf       	out	0x3d, r28	; 61
     ade:	df 91       	pop	r29
     ae0:	cf 91       	pop	r28
     ae2:	1f 91       	pop	r17
     ae4:	0f 91       	pop	r16
     ae6:	ff 90       	pop	r15
     ae8:	ef 90       	pop	r14
     aea:	df 90       	pop	r13
     aec:	cf 90       	pop	r12
     aee:	bf 90       	pop	r11
     af0:	af 90       	pop	r10
     af2:	9f 90       	pop	r9
     af4:	8f 90       	pop	r8
     af6:	08 95       	ret

00000af8 <swap>:
     af8:	dc 01       	movw	r26, r24
     afa:	fb 01       	movw	r30, r22
     afc:	20 81       	ld	r18, Z
     afe:	31 81       	ldd	r19, Z+1	; 0x01
     b00:	8d 91       	ld	r24, X+
     b02:	9c 91       	ld	r25, X
     b04:	11 97       	sbiw	r26, 0x01	; 1
     b06:	91 83       	std	Z+1, r25	; 0x01
     b08:	80 83       	st	Z, r24
     b0a:	2d 93       	st	X+, r18
     b0c:	3c 93       	st	X, r19
     b0e:	08 95       	ret

00000b10 <Line>:
     b10:	3f 92       	push	r3
     b12:	4f 92       	push	r4
     b14:	5f 92       	push	r5
     b16:	6f 92       	push	r6
     b18:	7f 92       	push	r7
     b1a:	8f 92       	push	r8
     b1c:	9f 92       	push	r9
     b1e:	af 92       	push	r10
     b20:	bf 92       	push	r11
     b22:	cf 92       	push	r12
     b24:	df 92       	push	r13
     b26:	ef 92       	push	r14
     b28:	ff 92       	push	r15
     b2a:	0f 93       	push	r16
     b2c:	1f 93       	push	r17
     b2e:	cf 93       	push	r28
     b30:	df 93       	push	r29
     b32:	ec 01       	movw	r28, r24
     b34:	fb 01       	movw	r30, r22
     b36:	6a 01       	movw	r12, r20
     b38:	30 2e       	mov	r3, r16
     b3a:	a9 01       	movw	r20, r18
     b3c:	46 1b       	sub	r20, r22
     b3e:	57 0b       	sbc	r21, r23
     b40:	57 ff       	sbrs	r21, 7
     b42:	03 c0       	rjmp	.+6      	; 0xb4a <Line+0x3a>
     b44:	50 95       	com	r21
     b46:	41 95       	neg	r20
     b48:	5f 4f       	sbci	r21, 0xFF	; 255
     b4a:	c6 01       	movw	r24, r12
     b4c:	8c 1b       	sub	r24, r28
     b4e:	9d 0b       	sbc	r25, r29
     b50:	97 ff       	sbrs	r25, 7
     b52:	03 c0       	rjmp	.+6      	; 0xb5a <Line+0x4a>
     b54:	90 95       	com	r25
     b56:	81 95       	neg	r24
     b58:	9f 4f       	sbci	r25, 0xFF	; 255
     b5a:	84 17       	cp	r24, r20
     b5c:	95 07       	cpc	r25, r21
     b5e:	54 f4       	brge	.+20     	; 0xb74 <Line+0x64>
     b60:	cf 01       	movw	r24, r30
     b62:	fe 01       	movw	r30, r28
     b64:	ec 01       	movw	r28, r24
     b66:	c9 01       	movw	r24, r18
     b68:	96 01       	movw	r18, r12
     b6a:	6c 01       	movw	r12, r24
     b6c:	b1 e0       	ldi	r27, 0x01	; 1
     b6e:	4b 2e       	mov	r4, r27
     b70:	51 2c       	mov	r5, r1
     b72:	02 c0       	rjmp	.+4      	; 0xb78 <Line+0x68>
     b74:	44 24       	eor	r4, r4
     b76:	55 24       	eor	r5, r5
     b78:	cc 16       	cp	r12, r28
     b7a:	dd 06       	cpc	r13, r29
     b7c:	34 f4       	brge	.+12     	; 0xb8a <Line+0x7a>
     b7e:	c6 01       	movw	r24, r12
     b80:	6e 01       	movw	r12, r28
     b82:	ec 01       	movw	r28, r24
     b84:	c9 01       	movw	r24, r18
     b86:	9f 01       	movw	r18, r30
     b88:	fc 01       	movw	r30, r24
     b8a:	46 01       	movw	r8, r12
     b8c:	8c 1a       	sub	r8, r28
     b8e:	9d 0a       	sbc	r9, r29
     b90:	59 01       	movw	r10, r18
     b92:	ae 1a       	sub	r10, r30
     b94:	bf 0a       	sbc	r11, r31
     b96:	b7 fe       	sbrs	r11, 7
     b98:	04 c0       	rjmp	.+8      	; 0xba2 <Line+0x92>
     b9a:	b0 94       	com	r11
     b9c:	a1 94       	neg	r10
     b9e:	b1 08       	sbc	r11, r1
     ba0:	b3 94       	inc	r11
     ba2:	e2 17       	cp	r30, r18
     ba4:	f3 07       	cpc	r31, r19
     ba6:	24 f4       	brge	.+8      	; 0xbb0 <Line+0xa0>
     ba8:	a1 e0       	ldi	r26, 0x01	; 1
     baa:	6a 2e       	mov	r6, r26
     bac:	71 2c       	mov	r7, r1
     bae:	03 c0       	rjmp	.+6      	; 0xbb6 <Line+0xa6>
     bb0:	66 24       	eor	r6, r6
     bb2:	6a 94       	dec	r6
     bb4:	76 2c       	mov	r7, r6
     bb6:	c4 01       	movw	r24, r8
     bb8:	62 e0       	ldi	r22, 0x02	; 2
     bba:	70 e0       	ldi	r23, 0x00	; 0
     bbc:	0e 94 7f 0a 	call	0x14fe	; 0x14fe <__divmodhi4>
     bc0:	8b 01       	movw	r16, r22
     bc2:	7f 01       	movw	r14, r30
     bc4:	16 c0       	rjmp	.+44     	; 0xbf2 <Line+0xe2>
     bc6:	81 e0       	ldi	r24, 0x01	; 1
     bc8:	48 16       	cp	r4, r24
     bca:	51 04       	cpc	r5, r1
     bcc:	21 f4       	brne	.+8      	; 0xbd6 <Line+0xc6>
     bce:	43 2d       	mov	r20, r3
     bd0:	6c 2f       	mov	r22, r28
     bd2:	8e 2d       	mov	r24, r14
     bd4:	03 c0       	rjmp	.+6      	; 0xbdc <Line+0xcc>
     bd6:	43 2d       	mov	r20, r3
     bd8:	6e 2d       	mov	r22, r14
     bda:	8c 2f       	mov	r24, r28
     bdc:	0e 94 e2 04 	call	0x9c4	; 0x9c4 <paintPixel>
     be0:	0a 19       	sub	r16, r10
     be2:	1b 09       	sbc	r17, r11
     be4:	17 ff       	sbrs	r17, 7
     be6:	04 c0       	rjmp	.+8      	; 0xbf0 <Line+0xe0>
     be8:	e6 0c       	add	r14, r6
     bea:	f7 1c       	adc	r15, r7
     bec:	08 0d       	add	r16, r8
     bee:	19 1d       	adc	r17, r9
     bf0:	21 96       	adiw	r28, 0x01	; 1
     bf2:	cc 16       	cp	r12, r28
     bf4:	dd 06       	cpc	r13, r29
     bf6:	3c f7       	brge	.-50     	; 0xbc6 <Line+0xb6>
     bf8:	df 91       	pop	r29
     bfa:	cf 91       	pop	r28
     bfc:	1f 91       	pop	r17
     bfe:	0f 91       	pop	r16
     c00:	ff 90       	pop	r15
     c02:	ef 90       	pop	r14
     c04:	df 90       	pop	r13
     c06:	cf 90       	pop	r12
     c08:	bf 90       	pop	r11
     c0a:	af 90       	pop	r10
     c0c:	9f 90       	pop	r9
     c0e:	8f 90       	pop	r8
     c10:	7f 90       	pop	r7
     c12:	6f 90       	pop	r6
     c14:	5f 90       	pop	r5
     c16:	4f 90       	pop	r4
     c18:	3f 90       	pop	r3
     c1a:	08 95       	ret

00000c1c <HourHand>:
     c1c:	cf 92       	push	r12
     c1e:	df 92       	push	r13
     c20:	ef 92       	push	r14
     c22:	ff 92       	push	r15
     c24:	0f 93       	push	r16
     c26:	1f 93       	push	r17
     c28:	f8 2e       	mov	r15, r24
     c2a:	16 2f       	mov	r17, r22
     c2c:	e4 2e       	mov	r14, r20
     c2e:	d2 2e       	mov	r13, r18
     c30:	c0 2e       	mov	r12, r16
     c32:	80 91 5c 06 	lds	r24, 0x065C
     c36:	88 23       	and	r24, r24
     c38:	81 f0       	breq	.+32     	; 0xc5a <HourHand+0x3e>
     c3a:	80 91 5d 06 	lds	r24, 0x065D
     c3e:	88 23       	and	r24, r24
     c40:	61 f0       	breq	.+24     	; 0xc5a <HourHand+0x3e>
     c42:	20 91 5d 06 	lds	r18, 0x065D
     c46:	30 e0       	ldi	r19, 0x00	; 0
     c48:	40 91 5c 06 	lds	r20, 0x065C
     c4c:	50 e0       	ldi	r21, 0x00	; 0
     c4e:	70 e0       	ldi	r23, 0x00	; 0
     c50:	00 e0       	ldi	r16, 0x00	; 0
     c52:	8f 2d       	mov	r24, r15
     c54:	90 e0       	ldi	r25, 0x00	; 0
     c56:	0e 94 88 05 	call	0xb10	; 0xb10 <Line>
     c5a:	2d 2d       	mov	r18, r13
     c5c:	30 e0       	ldi	r19, 0x00	; 0
     c5e:	4e 2d       	mov	r20, r14
     c60:	50 e0       	ldi	r21, 0x00	; 0
     c62:	61 2f       	mov	r22, r17
     c64:	70 e0       	ldi	r23, 0x00	; 0
     c66:	0c 2d       	mov	r16, r12
     c68:	8f 2d       	mov	r24, r15
     c6a:	90 e0       	ldi	r25, 0x00	; 0
     c6c:	0e 94 88 05 	call	0xb10	; 0xb10 <Line>
     c70:	e0 92 5c 06 	sts	0x065C, r14
     c74:	d0 92 5d 06 	sts	0x065D, r13
     c78:	1f 91       	pop	r17
     c7a:	0f 91       	pop	r16
     c7c:	ff 90       	pop	r15
     c7e:	ef 90       	pop	r14
     c80:	df 90       	pop	r13
     c82:	cf 90       	pop	r12
     c84:	08 95       	ret

00000c86 <drawHorizontalLine>:
     c86:	ef 92       	push	r14
     c88:	ff 92       	push	r15
     c8a:	0f 93       	push	r16
     c8c:	1f 93       	push	r17
     c8e:	e8 2e       	mov	r14, r24
     c90:	16 2f       	mov	r17, r22
     c92:	f4 2e       	mov	r15, r20
     c94:	02 2f       	mov	r16, r18
     c96:	60 31       	cpi	r22, 0x10	; 16
     c98:	20 f4       	brcc	.+8      	; 0xca2 <drawHorizontalLine+0x1c>
     c9a:	5d 98       	cbi	0x0b, 5	; 11
     c9c:	5e 98       	cbi	0x0b, 6	; 11
     c9e:	5f 98       	cbi	0x0b, 7	; 11
     ca0:	03 c0       	rjmp	.+6      	; 0xca8 <drawHorizontalLine+0x22>
     ca2:	5a 98       	cbi	0x0b, 2	; 11
     ca4:	5b 98       	cbi	0x0b, 3	; 11
     ca6:	5c 98       	cbi	0x0b, 4	; 11
     ca8:	10 92 5b 06 	sts	0x065B, r1
     cac:	0e c0       	rjmp	.+28     	; 0xcca <drawHorizontalLine+0x44>
     cae:	2a 98       	cbi	0x05, 2	; 5
     cb0:	80 91 5b 06 	lds	r24, 0x065B
     cb4:	4f 2d       	mov	r20, r15
     cb6:	61 2f       	mov	r22, r17
     cb8:	8e 0d       	add	r24, r14
     cba:	0e 94 e2 04 	call	0x9c4	; 0x9c4 <paintPixel>
     cbe:	2a 9a       	sbi	0x05, 2	; 5
     cc0:	80 91 5b 06 	lds	r24, 0x065B
     cc4:	8f 5f       	subi	r24, 0xFF	; 255
     cc6:	80 93 5b 06 	sts	0x065B, r24
     cca:	80 91 5b 06 	lds	r24, 0x065B
     cce:	80 17       	cp	r24, r16
     cd0:	70 f3       	brcs	.-36     	; 0xcae <drawHorizontalLine+0x28>
     cd2:	1f 91       	pop	r17
     cd4:	0f 91       	pop	r16
     cd6:	ff 90       	pop	r15
     cd8:	ef 90       	pop	r14
     cda:	08 95       	ret

00000cdc <drawVerticalLine>:
     cdc:	ef 92       	push	r14
     cde:	ff 92       	push	r15
     ce0:	0f 93       	push	r16
     ce2:	1f 93       	push	r17
     ce4:	e8 2e       	mov	r14, r24
     ce6:	16 2f       	mov	r17, r22
     ce8:	f4 2e       	mov	r15, r20
     cea:	02 2f       	mov	r16, r18
     cec:	60 31       	cpi	r22, 0x10	; 16
     cee:	20 f4       	brcc	.+8      	; 0xcf8 <drawVerticalLine+0x1c>
     cf0:	5d 98       	cbi	0x0b, 5	; 11
     cf2:	5e 98       	cbi	0x0b, 6	; 11
     cf4:	5f 98       	cbi	0x0b, 7	; 11
     cf6:	03 c0       	rjmp	.+6      	; 0xcfe <drawVerticalLine+0x22>
     cf8:	5a 98       	cbi	0x0b, 2	; 11
     cfa:	5b 98       	cbi	0x0b, 3	; 11
     cfc:	5c 98       	cbi	0x0b, 4	; 11
     cfe:	10 92 5b 06 	sts	0x065B, r1
     d02:	0e c0       	rjmp	.+28     	; 0xd20 <drawVerticalLine+0x44>
     d04:	2a 98       	cbi	0x05, 2	; 5
     d06:	60 91 5b 06 	lds	r22, 0x065B
     d0a:	61 0f       	add	r22, r17
     d0c:	4f 2d       	mov	r20, r15
     d0e:	8e 2d       	mov	r24, r14
     d10:	0e 94 e2 04 	call	0x9c4	; 0x9c4 <paintPixel>
     d14:	2a 9a       	sbi	0x05, 2	; 5
     d16:	80 91 5b 06 	lds	r24, 0x065B
     d1a:	8f 5f       	subi	r24, 0xFF	; 255
     d1c:	80 93 5b 06 	sts	0x065B, r24
     d20:	80 91 5b 06 	lds	r24, 0x065B
     d24:	80 17       	cp	r24, r16
     d26:	70 f3       	brcs	.-36     	; 0xd04 <drawVerticalLine+0x28>
     d28:	1f 91       	pop	r17
     d2a:	0f 91       	pop	r16
     d2c:	ff 90       	pop	r15
     d2e:	ef 90       	pop	r14
     d30:	08 95       	ret

00000d32 <drawSquare>:
     d32:	ef 92       	push	r14
     d34:	ff 92       	push	r15
     d36:	0f 93       	push	r16
     d38:	1f 93       	push	r17
     d3a:	08 2f       	mov	r16, r24
     d3c:	e6 2e       	mov	r14, r22
     d3e:	f4 2e       	mov	r15, r20
     d40:	12 2f       	mov	r17, r18
     d42:	2a 98       	cbi	0x05, 2	; 5
     d44:	0e 94 43 06 	call	0xc86	; 0xc86 <drawHorizontalLine>
     d48:	2a 9a       	sbi	0x05, 2	; 5
     d4a:	2a 98       	cbi	0x05, 2	; 5
     d4c:	6e 2d       	mov	r22, r14
     d4e:	61 50       	subi	r22, 0x01	; 1
     d50:	61 0f       	add	r22, r17
     d52:	21 2f       	mov	r18, r17
     d54:	4f 2d       	mov	r20, r15
     d56:	80 2f       	mov	r24, r16
     d58:	0e 94 43 06 	call	0xc86	; 0xc86 <drawHorizontalLine>
     d5c:	2a 9a       	sbi	0x05, 2	; 5
     d5e:	2a 98       	cbi	0x05, 2	; 5
     d60:	21 2f       	mov	r18, r17
     d62:	4f 2d       	mov	r20, r15
     d64:	6e 2d       	mov	r22, r14
     d66:	80 2f       	mov	r24, r16
     d68:	0e 94 6e 06 	call	0xcdc	; 0xcdc <drawVerticalLine>
     d6c:	2a 9a       	sbi	0x05, 2	; 5
     d6e:	2a 98       	cbi	0x05, 2	; 5
     d70:	01 50       	subi	r16, 0x01	; 1
     d72:	21 2f       	mov	r18, r17
     d74:	4f 2d       	mov	r20, r15
     d76:	6e 2d       	mov	r22, r14
     d78:	80 2f       	mov	r24, r16
     d7a:	81 0f       	add	r24, r17
     d7c:	0e 94 6e 06 	call	0xcdc	; 0xcdc <drawVerticalLine>
     d80:	2a 9a       	sbi	0x05, 2	; 5
     d82:	1f 91       	pop	r17
     d84:	0f 91       	pop	r16
     d86:	ff 90       	pop	r15
     d88:	ef 90       	pop	r14
     d8a:	08 95       	ret

00000d8c <drawCircle>:
     d8c:	2f 92       	push	r2
     d8e:	3f 92       	push	r3
     d90:	4f 92       	push	r4
     d92:	5f 92       	push	r5
     d94:	6f 92       	push	r6
     d96:	7f 92       	push	r7
     d98:	8f 92       	push	r8
     d9a:	9f 92       	push	r9
     d9c:	af 92       	push	r10
     d9e:	bf 92       	push	r11
     da0:	cf 92       	push	r12
     da2:	df 92       	push	r13
     da4:	ef 92       	push	r14
     da6:	ff 92       	push	r15
     da8:	0f 93       	push	r16
     daa:	1f 93       	push	r17
     dac:	cf 93       	push	r28
     dae:	df 93       	push	r29
     db0:	cd b7       	in	r28, 0x3d	; 61
     db2:	de b7       	in	r29, 0x3e	; 62
     db4:	24 97       	sbiw	r28, 0x04	; 4
     db6:	0f b6       	in	r0, 0x3f	; 63
     db8:	f8 94       	cli
     dba:	de bf       	out	0x3e, r29	; 62
     dbc:	0f be       	out	0x3f, r0	; 63
     dbe:	cd bf       	out	0x3d, r28	; 61
     dc0:	7c 01       	movw	r14, r24
     dc2:	6b 01       	movw	r12, r22
     dc4:	8a 01       	movw	r16, r20
     dc6:	81 e0       	ldi	r24, 0x01	; 1
     dc8:	88 2e       	mov	r8, r24
     dca:	91 2c       	mov	r9, r1
     dcc:	82 1a       	sub	r8, r18
     dce:	93 0a       	sbc	r9, r19
     dd0:	c9 01       	movw	r24, r18
     dd2:	88 0f       	add	r24, r24
     dd4:	99 1f       	adc	r25, r25
     dd6:	66 24       	eor	r6, r6
     dd8:	77 24       	eor	r7, r7
     dda:	68 1a       	sub	r6, r24
     ddc:	79 0a       	sbc	r7, r25
     dde:	3c 83       	std	Y+4, r19	; 0x04
     de0:	2b 83       	std	Y+3, r18	; 0x03
     de2:	2a 98       	cbi	0x05, 2	; 5
     de4:	a0 2e       	mov	r10, r16
     de6:	46 2e       	mov	r4, r22
     de8:	bb 80       	ldd	r11, Y+3	; 0x03
     dea:	5e 2c       	mov	r5, r14
     dec:	6b 2d       	mov	r22, r11
     dee:	6c 0d       	add	r22, r12
     df0:	40 2f       	mov	r20, r16
     df2:	8e 2d       	mov	r24, r14
     df4:	0e 94 e2 04 	call	0x9c4	; 0x9c4 <paintPixel>
     df8:	2a 9a       	sbi	0x05, 2	; 5
     dfa:	2a 98       	cbi	0x05, 2	; 5
     dfc:	6c 2d       	mov	r22, r12
     dfe:	6b 19       	sub	r22, r11
     e00:	40 2f       	mov	r20, r16
     e02:	8e 2d       	mov	r24, r14
     e04:	0e 94 e2 04 	call	0x9c4	; 0x9c4 <paintPixel>
     e08:	2a 9a       	sbi	0x05, 2	; 5
     e0a:	2a 98       	cbi	0x05, 2	; 5
     e0c:	40 2f       	mov	r20, r16
     e0e:	6c 2d       	mov	r22, r12
     e10:	8b 2d       	mov	r24, r11
     e12:	8e 0d       	add	r24, r14
     e14:	0e 94 e2 04 	call	0x9c4	; 0x9c4 <paintPixel>
     e18:	2a 9a       	sbi	0x05, 2	; 5
     e1a:	2a 98       	cbi	0x05, 2	; 5
     e1c:	40 2f       	mov	r20, r16
     e1e:	6c 2d       	mov	r22, r12
     e20:	8e 2d       	mov	r24, r14
     e22:	8b 19       	sub	r24, r11
     e24:	0e 94 e2 04 	call	0x9c4	; 0x9c4 <paintPixel>
     e28:	2a 9a       	sbi	0x05, 2	; 5
     e2a:	81 e0       	ldi	r24, 0x01	; 1
     e2c:	90 e0       	ldi	r25, 0x00	; 0
     e2e:	9a 83       	std	Y+2, r25	; 0x02
     e30:	89 83       	std	Y+1, r24	; 0x01
     e32:	22 24       	eor	r2, r2
     e34:	33 24       	eor	r3, r3
     e36:	62 c0       	rjmp	.+196    	; 0xefc <drawCircle+0x170>
     e38:	97 fc       	sbrc	r9, 7
     e3a:	0b c0       	rjmp	.+22     	; 0xe52 <drawCircle+0xc6>
     e3c:	eb 81       	ldd	r30, Y+3	; 0x03
     e3e:	fc 81       	ldd	r31, Y+4	; 0x04
     e40:	31 97       	sbiw	r30, 0x01	; 1
     e42:	fc 83       	std	Y+4, r31	; 0x04
     e44:	eb 83       	std	Y+3, r30	; 0x03
     e46:	82 e0       	ldi	r24, 0x02	; 2
     e48:	90 e0       	ldi	r25, 0x00	; 0
     e4a:	68 0e       	add	r6, r24
     e4c:	79 1e       	adc	r7, r25
     e4e:	86 0c       	add	r8, r6
     e50:	97 1c       	adc	r9, r7
     e52:	08 94       	sec
     e54:	21 1c       	adc	r2, r1
     e56:	31 1c       	adc	r3, r1
     e58:	e9 81       	ldd	r30, Y+1	; 0x01
     e5a:	fa 81       	ldd	r31, Y+2	; 0x02
     e5c:	32 96       	adiw	r30, 0x02	; 2
     e5e:	fa 83       	std	Y+2, r31	; 0x02
     e60:	e9 83       	std	Y+1, r30	; 0x01
     e62:	8e 0e       	add	r8, r30
     e64:	9f 1e       	adc	r9, r31
     e66:	2a 98       	cbi	0x05, 2	; 5
     e68:	0b 81       	ldd	r16, Y+3	; 0x03
     e6a:	10 2f       	mov	r17, r16
     e6c:	14 0d       	add	r17, r4
     e6e:	d2 2c       	mov	r13, r2
     e70:	d5 0c       	add	r13, r5
     e72:	4a 2d       	mov	r20, r10
     e74:	61 2f       	mov	r22, r17
     e76:	8d 2d       	mov	r24, r13
     e78:	0e 94 e2 04 	call	0x9c4	; 0x9c4 <paintPixel>
     e7c:	2a 9a       	sbi	0x05, 2	; 5
     e7e:	2a 98       	cbi	0x05, 2	; 5
     e80:	e5 2c       	mov	r14, r5
     e82:	e2 18       	sub	r14, r2
     e84:	4a 2d       	mov	r20, r10
     e86:	61 2f       	mov	r22, r17
     e88:	8e 2d       	mov	r24, r14
     e8a:	0e 94 e2 04 	call	0x9c4	; 0x9c4 <paintPixel>
     e8e:	2a 9a       	sbi	0x05, 2	; 5
     e90:	2a 98       	cbi	0x05, 2	; 5
     e92:	14 2d       	mov	r17, r4
     e94:	10 1b       	sub	r17, r16
     e96:	4a 2d       	mov	r20, r10
     e98:	61 2f       	mov	r22, r17
     e9a:	8d 2d       	mov	r24, r13
     e9c:	0e 94 e2 04 	call	0x9c4	; 0x9c4 <paintPixel>
     ea0:	2a 9a       	sbi	0x05, 2	; 5
     ea2:	2a 98       	cbi	0x05, 2	; 5
     ea4:	4a 2d       	mov	r20, r10
     ea6:	61 2f       	mov	r22, r17
     ea8:	8e 2d       	mov	r24, r14
     eaa:	0e 94 e2 04 	call	0x9c4	; 0x9c4 <paintPixel>
     eae:	2a 9a       	sbi	0x05, 2	; 5
     eb0:	2a 98       	cbi	0x05, 2	; 5
     eb2:	12 2d       	mov	r17, r2
     eb4:	14 0d       	add	r17, r4
     eb6:	e0 2e       	mov	r14, r16
     eb8:	e5 0c       	add	r14, r5
     eba:	4a 2d       	mov	r20, r10
     ebc:	61 2f       	mov	r22, r17
     ebe:	8e 2d       	mov	r24, r14
     ec0:	0e 94 e2 04 	call	0x9c4	; 0x9c4 <paintPixel>
     ec4:	2a 9a       	sbi	0x05, 2	; 5
     ec6:	2a 98       	cbi	0x05, 2	; 5
     ec8:	f5 2d       	mov	r31, r5
     eca:	f0 1b       	sub	r31, r16
     ecc:	0f 2f       	mov	r16, r31
     ece:	4a 2d       	mov	r20, r10
     ed0:	61 2f       	mov	r22, r17
     ed2:	8f 2f       	mov	r24, r31
     ed4:	0e 94 e2 04 	call	0x9c4	; 0x9c4 <paintPixel>
     ed8:	2a 9a       	sbi	0x05, 2	; 5
     eda:	2a 98       	cbi	0x05, 2	; 5
     edc:	14 2d       	mov	r17, r4
     ede:	12 19       	sub	r17, r2
     ee0:	4a 2d       	mov	r20, r10
     ee2:	61 2f       	mov	r22, r17
     ee4:	8e 2d       	mov	r24, r14
     ee6:	0e 94 e2 04 	call	0x9c4	; 0x9c4 <paintPixel>
     eea:	2a 9a       	sbi	0x05, 2	; 5
     eec:	2a 98       	cbi	0x05, 2	; 5
     eee:	4a 2d       	mov	r20, r10
     ef0:	61 2f       	mov	r22, r17
     ef2:	80 2f       	mov	r24, r16
     ef4:	0e 94 e2 04 	call	0x9c4	; 0x9c4 <paintPixel>
     ef8:	2a 9a       	sbi	0x05, 2	; 5
     efa:	2a 98       	cbi	0x05, 2	; 5
     efc:	8b 81       	ldd	r24, Y+3	; 0x03
     efe:	9c 81       	ldd	r25, Y+4	; 0x04
     f00:	28 16       	cp	r2, r24
     f02:	39 06       	cpc	r3, r25
     f04:	0c f4       	brge	.+2      	; 0xf08 <drawCircle+0x17c>
     f06:	98 cf       	rjmp	.-208    	; 0xe38 <drawCircle+0xac>
     f08:	24 96       	adiw	r28, 0x04	; 4
     f0a:	0f b6       	in	r0, 0x3f	; 63
     f0c:	f8 94       	cli
     f0e:	de bf       	out	0x3e, r29	; 62
     f10:	0f be       	out	0x3f, r0	; 63
     f12:	cd bf       	out	0x3d, r28	; 61
     f14:	df 91       	pop	r29
     f16:	cf 91       	pop	r28
     f18:	1f 91       	pop	r17
     f1a:	0f 91       	pop	r16
     f1c:	ff 90       	pop	r15
     f1e:	ef 90       	pop	r14
     f20:	df 90       	pop	r13
     f22:	cf 90       	pop	r12
     f24:	bf 90       	pop	r11
     f26:	af 90       	pop	r10
     f28:	9f 90       	pop	r9
     f2a:	8f 90       	pop	r8
     f2c:	7f 90       	pop	r7
     f2e:	6f 90       	pop	r6
     f30:	5f 90       	pop	r5
     f32:	4f 90       	pop	r4
     f34:	3f 90       	pop	r3
     f36:	2f 90       	pop	r2
     f38:	08 95       	ret

00000f3a <Display>:
     f3a:	80 91 5b 06 	lds	r24, 0x065B
     f3e:	88 b9       	out	0x08, r24	; 8
     f40:	2a 9a       	sbi	0x05, 2	; 5
     f42:	29 9a       	sbi	0x05, 1	; 5
     f44:	10 92 5e 06 	sts	0x065E, r1
     f48:	23 c0       	rjmp	.+70     	; 0xf90 <Display+0x56>
     f4a:	e0 91 5b 06 	lds	r30, 0x065B
     f4e:	80 91 5e 06 	lds	r24, 0x065E
     f52:	f0 e0       	ldi	r31, 0x00	; 0
     f54:	95 e0       	ldi	r25, 0x05	; 5
     f56:	ee 0f       	add	r30, r30
     f58:	ff 1f       	adc	r31, r31
     f5a:	9a 95       	dec	r25
     f5c:	e1 f7       	brne	.-8      	; 0xf56 <Display+0x1c>
     f5e:	e8 1b       	sub	r30, r24
     f60:	f1 09       	sbc	r31, r1
     f62:	e5 5a       	subi	r30, 0xA5	; 165
     f64:	fd 4f       	sbci	r31, 0xFD	; 253
     f66:	87 8d       	ldd	r24, Z+31	; 0x1f
     f68:	0e 94 a2 04 	call	0x944	; 0x944 <setColorPixel>
     f6c:	80 91 5b 06 	lds	r24, 0x065B
     f70:	80 31       	cpi	r24, 0x10	; 16
     f72:	20 f4       	brcc	.+8      	; 0xf7c <Display+0x42>
     f74:	5d 98       	cbi	0x0b, 5	; 11
     f76:	5e 98       	cbi	0x0b, 6	; 11
     f78:	5f 98       	cbi	0x0b, 7	; 11
     f7a:	03 c0       	rjmp	.+6      	; 0xf82 <Display+0x48>
     f7c:	5a 98       	cbi	0x0b, 2	; 11
     f7e:	5b 98       	cbi	0x0b, 3	; 11
     f80:	5c 98       	cbi	0x0b, 4	; 11
     f82:	2b 9a       	sbi	0x05, 3	; 5
     f84:	2b 98       	cbi	0x05, 3	; 5
     f86:	80 91 5e 06 	lds	r24, 0x065E
     f8a:	8f 5f       	subi	r24, 0xFF	; 255
     f8c:	80 93 5e 06 	sts	0x065E, r24
     f90:	80 91 5e 06 	lds	r24, 0x065E
     f94:	80 32       	cpi	r24, 0x20	; 32
     f96:	c8 f2       	brcs	.-78     	; 0xf4a <Display+0x10>
     f98:	80 91 5b 06 	lds	r24, 0x065B
     f9c:	8f 5f       	subi	r24, 0xFF	; 255
     f9e:	80 93 5b 06 	sts	0x065B, r24
     fa2:	80 91 5b 06 	lds	r24, 0x065B
     fa6:	80 32       	cpi	r24, 0x20	; 32
     fa8:	11 f4       	brne	.+4      	; 0xfae <Display+0x74>
     faa:	10 92 5b 06 	sts	0x065B, r1
     fae:	2a 98       	cbi	0x05, 2	; 5
     fb0:	29 98       	cbi	0x05, 1	; 5
     fb2:	08 95       	ret

00000fb4 <CleanMatrix>:
     fb4:	80 e0       	ldi	r24, 0x00	; 0
     fb6:	94 e0       	ldi	r25, 0x04	; 4
     fb8:	eb e5       	ldi	r30, 0x5B	; 91
     fba:	f2 e0       	ldi	r31, 0x02	; 2
     fbc:	11 92       	st	Z+, r1
     fbe:	01 97       	sbiw	r24, 0x01	; 1
     fc0:	e9 f7       	brne	.-6      	; 0xfbc <CleanMatrix+0x8>
     fc2:	08 95       	ret

00000fc4 <Delay_20mS>:
     fc4:	cf 93       	push	r28
     fc6:	df 93       	push	r29
     fc8:	cd b7       	in	r28, 0x3d	; 61
     fca:	de b7       	in	r29, 0x3e	; 62
     fcc:	22 97       	sbiw	r28, 0x02	; 2
     fce:	0f b6       	in	r0, 0x3f	; 63
     fd0:	f8 94       	cli
     fd2:	de bf       	out	0x3e, r29	; 62
     fd4:	0f be       	out	0x3f, r0	; 63
     fd6:	cd bf       	out	0x3d, r28	; 61
     fd8:	88 e2       	ldi	r24, 0x28	; 40
     fda:	89 83       	std	Y+1, r24	; 0x01
     fdc:	8e e0       	ldi	r24, 0x0E	; 14
     fde:	8a 83       	std	Y+2, r24	; 0x02
     fe0:	00 00       	nop
     fe2:	00 00       	nop
     fe4:	89 81       	ldd	r24, Y+1	; 0x01
     fe6:	81 50       	subi	r24, 0x01	; 1
     fe8:	89 83       	std	Y+1, r24	; 0x01
     fea:	89 81       	ldd	r24, Y+1	; 0x01
     fec:	88 23       	and	r24, r24
     fee:	c1 f7       	brne	.-16     	; 0xfe0 <Delay_20mS+0x1c>
     ff0:	8a 81       	ldd	r24, Y+2	; 0x02
     ff2:	81 50       	subi	r24, 0x01	; 1
     ff4:	8a 83       	std	Y+2, r24	; 0x02
     ff6:	8a 81       	ldd	r24, Y+2	; 0x02
     ff8:	88 23       	and	r24, r24
     ffa:	91 f7       	brne	.-28     	; 0xfe0 <Delay_20mS+0x1c>
     ffc:	22 96       	adiw	r28, 0x02	; 2
     ffe:	0f b6       	in	r0, 0x3f	; 63
    1000:	f8 94       	cli
    1002:	de bf       	out	0x3e, r29	; 62
    1004:	0f be       	out	0x3f, r0	; 63
    1006:	cd bf       	out	0x3d, r28	; 61
    1008:	df 91       	pop	r29
    100a:	cf 91       	pop	r28
    100c:	08 95       	ret

0000100e <UART0_Init>:
    100e:	0f 93       	push	r16
    1010:	1f 93       	push	r17
    1012:	2f 93       	push	r18
    1014:	3f 93       	push	r19
    1016:	4f 93       	push	r20
    1018:	5f 93       	push	r21
    101a:	50 e0       	ldi	r21, 0x00	; 0
    101c:	46 e0       	ldi	r20, 0x06	; 6
    101e:	38 e1       	ldi	r19, 0x18	; 24
    1020:	20 e2       	ldi	r18, 0x20	; 32
    1022:	30 93 c1 00 	sts	0x00C1, r19
    1026:	40 93 c2 00 	sts	0x00C2, r20
    102a:	08 2f       	mov	r16, r24
    102c:	10 e0       	ldi	r17, 0x00	; 0
    102e:	10 93 c5 00 	sts	0x00C5, r17
    1032:	00 93 c4 00 	sts	0x00C4, r16
    1036:	20 93 c0 00 	sts	0x00C0, r18
    103a:	5f 91       	pop	r21
    103c:	4f 91       	pop	r20
    103e:	3f 91       	pop	r19
    1040:	2f 91       	pop	r18
    1042:	1f 91       	pop	r17
    1044:	0f 91       	pop	r16
    1046:	08 95       	ret

00001048 <UART0_putchar>:
    1048:	5f 93       	push	r21
    104a:	6f 93       	push	r22
    104c:	8f 93       	push	r24

0000104e <UART0_putchar_r>:
    104e:	50 91 c0 00 	lds	r21, 0x00C0
    1052:	55 ff       	sbrs	r21, 5
    1054:	fc cf       	rjmp	.-8      	; 0x104e <UART0_putchar_r>
    1056:	80 93 c6 00 	sts	0x00C6, r24
    105a:	61 e0       	ldi	r22, 0x01	; 1
    105c:	60 fb       	bst	r22, 0
    105e:	55 f9       	bld	r21, 5
    1060:	50 93 c0 00 	sts	0x00C0, r21
    1064:	8f 91       	pop	r24
    1066:	6f 91       	pop	r22
    1068:	5f 91       	pop	r21
    106a:	08 95       	ret

0000106c <UART0_getch>:
    106c:	5f 93       	push	r21

0000106e <UART0_getch_l>:
    106e:	50 91 c0 00 	lds	r21, 0x00C0
    1072:	57 ff       	sbrs	r21, 7
    1074:	fc cf       	rjmp	.-8      	; 0x106e <UART0_getch_l>
    1076:	80 91 c6 00 	lds	r24, 0x00C6
    107a:	5f 91       	pop	r21
    107c:	08 95       	ret

0000107e <UART0_getche>:
    107e:	5f 93       	push	r21

00001080 <UART0_getche_l>:
    1080:	50 91 c0 00 	lds	r21, 0x00C0
    1084:	57 ff       	sbrs	r21, 7
    1086:	fc cf       	rjmp	.-8      	; 0x1080 <UART0_getche_l>
    1088:	80 91 c6 00 	lds	r24, 0x00C6
    108c:	dd df       	rcall	.-70     	; 0x1048 <UART0_putchar>
    108e:	5f 91       	pop	r21
    1090:	08 95       	ret

00001092 <UART0_kbhit>:
    1092:	80 91 c6 00 	lds	r24, 0x00C6
    1096:	08 95       	ret

00001098 <UART0_puts>:
    1098:	4f 93       	push	r20
    109a:	8f 93       	push	r24
    109c:	40 e0       	ldi	r20, 0x00	; 0

0000109e <try2>:
    109e:	89 91       	ld	r24, Y+
    10a0:	80 93 c6 00 	sts	0x00C6, r24
    10a4:	84 13       	cpse	r24, r20
    10a6:	fb cf       	rjmp	.-10     	; 0x109e <try2>
    10a8:	8f 91       	pop	r24
    10aa:	4f 91       	pop	r20
    10ac:	08 95       	ret

000010ae <putByteHex>:
    10ae:	8f 93       	push	r24
    10b0:	9f 93       	push	r25
    10b2:	2f 93       	push	r18
    10b4:	1f 93       	push	r17
    10b6:	0f 93       	push	r16
    10b8:	00 e3       	ldi	r16, 0x30	; 48
    10ba:	17 e3       	ldi	r17, 0x37	; 55
    10bc:	98 2f       	mov	r25, r24
    10be:	80 7f       	andi	r24, 0xF0	; 240
    10c0:	82 95       	swap	r24
    10c2:	28 2f       	mov	r18, r24
    10c4:	2a 5f       	subi	r18, 0xFA	; 250
    10c6:	24 ff       	sbrs	r18, 4
    10c8:	80 0f       	add	r24, r16
    10ca:	24 fd       	sbrc	r18, 4
    10cc:	81 0f       	add	r24, r17
    10ce:	bc df       	rcall	.-136    	; 0x1048 <UART0_putchar>
    10d0:	9f 70       	andi	r25, 0x0F	; 15
    10d2:	89 2f       	mov	r24, r25
    10d4:	28 2f       	mov	r18, r24
    10d6:	2a 5f       	subi	r18, 0xFA	; 250
    10d8:	24 ff       	sbrs	r18, 4
    10da:	80 0f       	add	r24, r16
    10dc:	24 fd       	sbrc	r18, 4
    10de:	81 0f       	add	r24, r17
    10e0:	b3 df       	rcall	.-154    	; 0x1048 <UART0_putchar>
    10e2:	0f 91       	pop	r16
    10e4:	1f 91       	pop	r17
    10e6:	2f 91       	pop	r18
    10e8:	9f 91       	pop	r25
    10ea:	8f 91       	pop	r24
    10ec:	08 95       	ret

000010ee <putWordHex>:
    10ee:	8f 93       	push	r24
    10f0:	9f 93       	push	r25
    10f2:	4f 93       	push	r20
    10f4:	48 2f       	mov	r20, r24
    10f6:	89 2f       	mov	r24, r25
    10f8:	da df       	rcall	.-76     	; 0x10ae <putByteHex>
    10fa:	84 2f       	mov	r24, r20
    10fc:	d8 df       	rcall	.-80     	; 0x10ae <putByteHex>
    10fe:	4f 91       	pop	r20
    1100:	9f 91       	pop	r25
    1102:	8f 91       	pop	r24
    1104:	08 95       	ret

00001106 <boton>:
    1106:	32 9b       	sbis	0x06, 2	; 6
    1108:	81 e0       	ldi	r24, 0x01	; 1
    110a:	80 e0       	ldi	r24, 0x00	; 0
    110c:	08 95       	ret

0000110e <num_let>:
    110e:	0f 93       	push	r16
    1110:	1f 93       	push	r17
    1112:	00 e3       	ldi	r16, 0x30	; 48
    1114:	17 e3       	ldi	r17, 0x37	; 55
    1116:	8a 30       	cpi	r24, 0x0A	; 10
    1118:	10 f0       	brcs	.+4      	; 0x111e <numeros>
    111a:	81 0f       	add	r24, r17
    111c:	01 c0       	rjmp	.+2      	; 0x1120 <fin>

0000111e <numeros>:
    111e:	80 0f       	add	r24, r16

00001120 <fin>:
    1120:	1f 91       	pop	r17
    1122:	0f 91       	pop	r16
    1124:	08 95       	ret

00001126 <Timer2_Ini>:
    1126:	e0 e7       	ldi	r30, 0x70	; 112
    1128:	f0 e0       	ldi	r31, 0x00	; 0
    112a:	10 82       	st	Z, r1
    112c:	90 e2       	ldi	r25, 0x20	; 32
    112e:	90 93 b6 00 	sts	0x00B6, r25
    1132:	22 e0       	ldi	r18, 0x02	; 2
    1134:	20 93 b0 00 	sts	0x00B0, r18
    1138:	97 e0       	ldi	r25, 0x07	; 7
    113a:	90 93 b1 00 	sts	0x00B1, r25
    113e:	10 92 b2 00 	sts	0x00B2, r1
    1142:	97 bb       	out	0x17, r25	; 23
    1144:	82 95       	swap	r24
    1146:	88 0f       	add	r24, r24
    1148:	80 7e       	andi	r24, 0xE0	; 224
    114a:	81 50       	subi	r24, 0x01	; 1
    114c:	80 93 b3 00 	sts	0x00B3, r24
    1150:	20 83       	st	Z, r18
    1152:	78 94       	sei
    1154:	08 95       	ret

00001156 <Timer2_OneSecIni>:
    1156:	e0 e7       	ldi	r30, 0x70	; 112
    1158:	f0 e0       	ldi	r31, 0x00	; 0
    115a:	10 82       	st	Z, r1
    115c:	80 e2       	ldi	r24, 0x20	; 32
    115e:	80 93 b6 00 	sts	0x00B6, r24
    1162:	92 e0       	ldi	r25, 0x02	; 2
    1164:	90 93 b0 00 	sts	0x00B0, r25
    1168:	87 e0       	ldi	r24, 0x07	; 7
    116a:	80 93 b1 00 	sts	0x00B1, r24
    116e:	10 92 b2 00 	sts	0x00B2, r1
    1172:	87 bb       	out	0x17, r24	; 23
    1174:	8d e7       	ldi	r24, 0x7D	; 125
    1176:	80 93 b3 00 	sts	0x00B3, r24
    117a:	90 83       	st	Z, r25
    117c:	78 94       	sei
    117e:	08 95       	ret

00001180 <Timer2_Flag>:
    1180:	80 91 60 06 	lds	r24, 0x0660
    1184:	88 23       	and	r24, r24
    1186:	11 f0       	breq	.+4      	; 0x118c <Timer2_Flag+0xc>
    1188:	10 92 60 06 	sts	0x0660, r1
    118c:	90 e0       	ldi	r25, 0x00	; 0
    118e:	08 95       	ret

00001190 <__vector_7>:
    1190:	1f 92       	push	r1
    1192:	0f 92       	push	r0
    1194:	0f b6       	in	r0, 0x3f	; 63
    1196:	0f 92       	push	r0
    1198:	11 24       	eor	r1, r1
    119a:	8f 93       	push	r24
    119c:	80 91 5f 06 	lds	r24, 0x065F
    11a0:	8f 5f       	subi	r24, 0xFF	; 255
    11a2:	80 93 5f 06 	sts	0x065F, r24
    11a6:	80 91 5f 06 	lds	r24, 0x065F
    11aa:	8d 37       	cpi	r24, 0x7D	; 125
    11ac:	28 f0       	brcs	.+10     	; 0x11b8 <__vector_7+0x28>
    11ae:	10 92 5f 06 	sts	0x065F, r1
    11b2:	81 e0       	ldi	r24, 0x01	; 1
    11b4:	80 93 60 06 	sts	0x0660, r24
    11b8:	8f 91       	pop	r24
    11ba:	0f 90       	pop	r0
    11bc:	0f be       	out	0x3f, r0	; 63
    11be:	0f 90       	pop	r0
    11c0:	1f 90       	pop	r1
    11c2:	18 95       	reti

000011c4 <SetIntClk_2MHz>:
    11c4:	e1 e6       	ldi	r30, 0x61	; 97
    11c6:	f0 e0       	ldi	r31, 0x00	; 0
    11c8:	90 e8       	ldi	r25, 0x80	; 128
    11ca:	90 83       	st	Z, r25
    11cc:	82 e0       	ldi	r24, 0x02	; 2
    11ce:	80 83       	st	Z, r24
	...
    11d8:	00 00       	nop
    11da:	90 83       	st	Z, r25
    11dc:	80 83       	st	Z, r24
    11de:	00 00       	nop
    11e0:	00 00       	nop
    11e2:	08 95       	ret

000011e4 <Clock_Ini>:
    11e4:	80 93 61 06 	sts	0x0661, r24
    11e8:	60 93 62 06 	sts	0x0662, r22
    11ec:	40 93 63 06 	sts	0x0663, r20
    11f0:	08 95       	ret

000011f2 <Clock_Update>:
    11f2:	80 91 63 06 	lds	r24, 0x0663
    11f6:	8f 5f       	subi	r24, 0xFF	; 255
    11f8:	80 93 63 06 	sts	0x0663, r24
    11fc:	80 91 63 06 	lds	r24, 0x0663
    1200:	8c 33       	cpi	r24, 0x3C	; 60
    1202:	c0 f0       	brcs	.+48     	; 0x1234 <Clock_Update+0x42>
    1204:	10 92 63 06 	sts	0x0663, r1
    1208:	80 91 62 06 	lds	r24, 0x0662
    120c:	8f 5f       	subi	r24, 0xFF	; 255
    120e:	80 93 62 06 	sts	0x0662, r24
    1212:	80 91 62 06 	lds	r24, 0x0662
    1216:	8c 33       	cpi	r24, 0x3C	; 60
    1218:	68 f0       	brcs	.+26     	; 0x1234 <Clock_Update+0x42>
    121a:	10 92 62 06 	sts	0x0662, r1
    121e:	80 91 61 06 	lds	r24, 0x0661
    1222:	8f 5f       	subi	r24, 0xFF	; 255
    1224:	80 93 61 06 	sts	0x0661, r24
    1228:	80 91 61 06 	lds	r24, 0x0661
    122c:	8c 30       	cpi	r24, 0x0C	; 12
    122e:	10 f0       	brcs	.+4      	; 0x1234 <Clock_Update+0x42>
    1230:	10 92 61 06 	sts	0x0661, r1
    1234:	08 95       	ret

00001236 <BCD_Value>:
    1236:	80 93 64 06 	sts	0x0664, r24
    123a:	80 91 64 06 	lds	r24, 0x0664
    123e:	6a e0       	ldi	r22, 0x0A	; 10
    1240:	0e 94 73 0a 	call	0x14e6	; 0x14e6 <__udivmodqi4>
    1244:	80 93 65 06 	sts	0x0665, r24
    1248:	80 91 65 06 	lds	r24, 0x0665
    124c:	8a 30       	cpi	r24, 0x0A	; 10
    124e:	b8 f4       	brcc	.+46     	; 0x127e <BCD_Value+0x48>
    1250:	80 91 64 06 	lds	r24, 0x0664
    1254:	0e 94 73 0a 	call	0x14e6	; 0x14e6 <__udivmodqi4>
    1258:	90 93 66 06 	sts	0x0666, r25
    125c:	80 91 65 06 	lds	r24, 0x0665
    1260:	90 e0       	ldi	r25, 0x00	; 0
    1262:	24 e0       	ldi	r18, 0x04	; 4
    1264:	88 0f       	add	r24, r24
    1266:	99 1f       	adc	r25, r25
    1268:	2a 95       	dec	r18
    126a:	e1 f7       	brne	.-8      	; 0x1264 <BCD_Value+0x2e>
    126c:	80 93 65 06 	sts	0x0665, r24
    1270:	90 91 65 06 	lds	r25, 0x0665
    1274:	80 91 66 06 	lds	r24, 0x0666
    1278:	89 0f       	add	r24, r25
    127a:	80 93 64 06 	sts	0x0664, r24
    127e:	80 91 64 06 	lds	r24, 0x0664
    1282:	90 e0       	ldi	r25, 0x00	; 0
    1284:	08 95       	ret

00001286 <BCD_Time>:
    1286:	cf 92       	push	r12
    1288:	df 92       	push	r13
    128a:	ef 92       	push	r14
    128c:	ff 92       	push	r15
    128e:	0f 93       	push	r16
    1290:	1f 93       	push	r17
    1292:	cf 93       	push	r28
    1294:	df 93       	push	r29
    1296:	cd b7       	in	r28, 0x3d	; 61
    1298:	de b7       	in	r29, 0x3e	; 62
    129a:	23 97       	sbiw	r28, 0x03	; 3
    129c:	0f b6       	in	r0, 0x3f	; 63
    129e:	f8 94       	cli
    12a0:	de bf       	out	0x3e, r29	; 62
    12a2:	0f be       	out	0x3f, r0	; 63
    12a4:	cd bf       	out	0x3d, r28	; 61
    12a6:	ee 24       	eor	r14, r14
    12a8:	ff 24       	eor	r15, r15
    12aa:	87 01       	movw	r16, r14
    12ac:	80 91 61 06 	lds	r24, 0x0661
    12b0:	0e 94 1b 09 	call	0x1236	; 0x1236 <BCD_Value>
    12b4:	c8 2e       	mov	r12, r24
    12b6:	80 91 62 06 	lds	r24, 0x0662
    12ba:	0e 94 1b 09 	call	0x1236	; 0x1236 <BCD_Value>
    12be:	d8 2e       	mov	r13, r24
    12c0:	80 91 63 06 	lds	r24, 0x0663
    12c4:	0e 94 1b 09 	call	0x1236	; 0x1236 <BCD_Value>
    12c8:	ec 2c       	mov	r14, r12
    12ca:	fd 2c       	mov	r15, r13
    12cc:	08 2f       	mov	r16, r24
    12ce:	c8 01       	movw	r24, r16
    12d0:	b7 01       	movw	r22, r14
    12d2:	23 96       	adiw	r28, 0x03	; 3
    12d4:	0f b6       	in	r0, 0x3f	; 63
    12d6:	f8 94       	cli
    12d8:	de bf       	out	0x3e, r29	; 62
    12da:	0f be       	out	0x3f, r0	; 63
    12dc:	cd bf       	out	0x3d, r28	; 61
    12de:	df 91       	pop	r29
    12e0:	cf 91       	pop	r28
    12e2:	1f 91       	pop	r17
    12e4:	0f 91       	pop	r16
    12e6:	ff 90       	pop	r15
    12e8:	ef 90       	pop	r14
    12ea:	df 90       	pop	r13
    12ec:	cf 90       	pop	r12
    12ee:	08 95       	ret

000012f0 <CurrentTime>:
    12f0:	cf 93       	push	r28
    12f2:	df 93       	push	r29
    12f4:	cd b7       	in	r28, 0x3d	; 61
    12f6:	de b7       	in	r29, 0x3e	; 62
    12f8:	23 97       	sbiw	r28, 0x03	; 3
    12fa:	0f b6       	in	r0, 0x3f	; 63
    12fc:	f8 94       	cli
    12fe:	de bf       	out	0x3e, r29	; 62
    1300:	0f be       	out	0x3f, r0	; 63
    1302:	cd bf       	out	0x3d, r28	; 61
    1304:	60 e0       	ldi	r22, 0x00	; 0
    1306:	70 e0       	ldi	r23, 0x00	; 0
    1308:	80 e0       	ldi	r24, 0x00	; 0
    130a:	90 e0       	ldi	r25, 0x00	; 0
    130c:	20 91 61 06 	lds	r18, 0x0661
    1310:	30 91 62 06 	lds	r19, 0x0662
    1314:	40 91 63 06 	lds	r20, 0x0663
    1318:	62 2f       	mov	r22, r18
    131a:	73 2f       	mov	r23, r19
    131c:	84 2f       	mov	r24, r20
    131e:	23 96       	adiw	r28, 0x03	; 3
    1320:	0f b6       	in	r0, 0x3f	; 63
    1322:	f8 94       	cli
    1324:	de bf       	out	0x3e, r29	; 62
    1326:	0f be       	out	0x3f, r0	; 63
    1328:	cd bf       	out	0x3d, r28	; 61
    132a:	df 91       	pop	r29
    132c:	cf 91       	pop	r28
    132e:	08 95       	ret

00001330 <Clock_Display>:
    1330:	cf 93       	push	r28
    1332:	df 93       	push	r29
    1334:	cd b7       	in	r28, 0x3d	; 61
    1336:	de b7       	in	r29, 0x3e	; 62
    1338:	26 97       	sbiw	r28, 0x06	; 6
    133a:	0f b6       	in	r0, 0x3f	; 63
    133c:	f8 94       	cli
    133e:	de bf       	out	0x3e, r29	; 62
    1340:	0f be       	out	0x3f, r0	; 63
    1342:	cd bf       	out	0x3d, r28	; 61
    1344:	0e 94 43 09 	call	0x1286	; 0x1286 <BCD_Time>
    1348:	6c 83       	std	Y+4, r22	; 0x04
    134a:	7d 83       	std	Y+5, r23	; 0x05
    134c:	8e 83       	std	Y+6, r24	; 0x06
    134e:	de 01       	movw	r26, r28
    1350:	11 96       	adiw	r26, 0x01	; 1
    1352:	fe 01       	movw	r30, r28
    1354:	34 96       	adiw	r30, 0x04	; 4
    1356:	83 e0       	ldi	r24, 0x03	; 3
    1358:	01 90       	ld	r0, Z+
    135a:	0d 92       	st	X+, r0
    135c:	81 50       	subi	r24, 0x01	; 1
    135e:	e1 f7       	brne	.-8      	; 0x1358 <Clock_Display+0x28>
    1360:	89 81       	ldd	r24, Y+1	; 0x01
    1362:	0e 94 57 08 	call	0x10ae	; 0x10ae <putByteHex>
    1366:	8a e3       	ldi	r24, 0x3A	; 58
    1368:	0e 94 24 08 	call	0x1048	; 0x1048 <UART0_putchar>
    136c:	8a 81       	ldd	r24, Y+2	; 0x02
    136e:	0e 94 57 08 	call	0x10ae	; 0x10ae <putByteHex>
    1372:	8a e3       	ldi	r24, 0x3A	; 58
    1374:	0e 94 24 08 	call	0x1048	; 0x1048 <UART0_putchar>
    1378:	8b 81       	ldd	r24, Y+3	; 0x03
    137a:	0e 94 57 08 	call	0x10ae	; 0x10ae <putByteHex>
    137e:	26 96       	adiw	r28, 0x06	; 6
    1380:	0f b6       	in	r0, 0x3f	; 63
    1382:	f8 94       	cli
    1384:	de bf       	out	0x3e, r29	; 62
    1386:	0f be       	out	0x3f, r0	; 63
    1388:	cd bf       	out	0x3d, r28	; 61
    138a:	df 91       	pop	r29
    138c:	cf 91       	pop	r28
    138e:	08 95       	ret

00001390 <EEPROM_Ini>:
    1390:	fd 98       	cbi	0x1f, 5	; 31
    1392:	fc 98       	cbi	0x1f, 4	; 31
    1394:	fb 98       	cbi	0x1f, 3	; 31
    1396:	08 95       	ret

00001398 <EEPROM_Write>:
    1398:	f9 99       	sbic	0x1f, 1	; 31
    139a:	fe cf       	rjmp	.-4      	; 0x1398 <EEPROM_Write>
    139c:	81 bd       	out	0x21, r24	; 33
    139e:	60 bd       	out	0x20, r22	; 32
    13a0:	fa 9a       	sbi	0x1f, 2	; 31
    13a2:	f9 9a       	sbi	0x1f, 1	; 31
    13a4:	08 95       	ret

000013a6 <EEPROM_Read>:
    13a6:	f9 99       	sbic	0x1f, 1	; 31
    13a8:	fe cf       	rjmp	.-4      	; 0x13a6 <EEPROM_Read>
    13aa:	81 bd       	out	0x21, r24	; 33
    13ac:	f8 9a       	sbi	0x1f, 0	; 31
    13ae:	80 b5       	in	r24, 0x20	; 32
    13b0:	90 e0       	ldi	r25, 0x00	; 0
    13b2:	08 95       	ret

000013b4 <UART0_putsf>:
    13b4:	cf 93       	push	r28
    13b6:	df 93       	push	r29
    13b8:	ec 01       	movw	r28, r24
    13ba:	05 c0       	rjmp	.+10     	; 0x13c6 <UART0_putsf+0x12>
    13bc:	21 96       	adiw	r28, 0x01	; 1
    13be:	f9 01       	movw	r30, r18
    13c0:	84 91       	lpm	r24, Z
    13c2:	0e 94 24 08 	call	0x1048	; 0x1048 <UART0_putchar>
    13c6:	9e 01       	movw	r18, r28
    13c8:	fe 01       	movw	r30, r28
    13ca:	84 91       	lpm	r24, Z
    13cc:	88 23       	and	r24, r24
    13ce:	b1 f7       	brne	.-20     	; 0x13bc <UART0_putsf+0x8>
    13d0:	df 91       	pop	r29
    13d2:	cf 91       	pop	r28
    13d4:	08 95       	ret

000013d6 <TextMenu>:
    13d6:	cf 93       	push	r28
    13d8:	df 93       	push	r29
    13da:	10 92 6f 06 	sts	0x066F, r1
    13de:	cf e8       	ldi	r28, 0x8F	; 143
    13e0:	d6 e0       	ldi	r29, 0x06	; 6
    13e2:	03 c0       	rjmp	.+6      	; 0x13ea <TextMenu+0x14>
    13e4:	ce 01       	movw	r24, r28
    13e6:	0e 94 da 09 	call	0x13b4	; 0x13b4 <UART0_putsf>
    13ea:	80 91 6f 06 	lds	r24, 0x066F
    13ee:	88 23       	and	r24, r24
    13f0:	c9 f3       	breq	.-14     	; 0x13e4 <TextMenu+0xe>
    13f2:	df 91       	pop	r29
    13f4:	cf 91       	pop	r28
    13f6:	08 95       	ret

000013f8 <gotoxy>:
    13f8:	0f 93       	push	r16
    13fa:	1f 93       	push	r17
    13fc:	08 2f       	mov	r16, r24
    13fe:	16 2f       	mov	r17, r22
    1400:	8b e1       	ldi	r24, 0x1B	; 27
    1402:	0e 94 24 08 	call	0x1048	; 0x1048 <UART0_putchar>
    1406:	8b e5       	ldi	r24, 0x5B	; 91
    1408:	0e 94 24 08 	call	0x1048	; 0x1048 <UART0_putchar>
    140c:	81 2f       	mov	r24, r17
    140e:	6a e0       	ldi	r22, 0x0A	; 10
    1410:	0e 94 73 0a 	call	0x14e6	; 0x14e6 <__udivmodqi4>
    1414:	80 5d       	subi	r24, 0xD0	; 208
    1416:	0e 94 24 08 	call	0x1048	; 0x1048 <UART0_putchar>
    141a:	81 2f       	mov	r24, r17
    141c:	6a e0       	ldi	r22, 0x0A	; 10
    141e:	0e 94 73 0a 	call	0x14e6	; 0x14e6 <__udivmodqi4>
    1422:	89 2f       	mov	r24, r25
    1424:	80 5d       	subi	r24, 0xD0	; 208
    1426:	0e 94 24 08 	call	0x1048	; 0x1048 <UART0_putchar>
    142a:	8b e3       	ldi	r24, 0x3B	; 59
    142c:	0e 94 24 08 	call	0x1048	; 0x1048 <UART0_putchar>
    1430:	80 2f       	mov	r24, r16
    1432:	6a e0       	ldi	r22, 0x0A	; 10
    1434:	0e 94 73 0a 	call	0x14e6	; 0x14e6 <__udivmodqi4>
    1438:	80 5d       	subi	r24, 0xD0	; 208
    143a:	0e 94 24 08 	call	0x1048	; 0x1048 <UART0_putchar>
    143e:	80 2f       	mov	r24, r16
    1440:	6a e0       	ldi	r22, 0x0A	; 10
    1442:	0e 94 73 0a 	call	0x14e6	; 0x14e6 <__udivmodqi4>
    1446:	89 2f       	mov	r24, r25
    1448:	80 5d       	subi	r24, 0xD0	; 208
    144a:	0e 94 24 08 	call	0x1048	; 0x1048 <UART0_putchar>
    144e:	86 e6       	ldi	r24, 0x66	; 102
    1450:	0e 94 24 08 	call	0x1048	; 0x1048 <UART0_putchar>
    1454:	1f 91       	pop	r17
    1456:	0f 91       	pop	r16
    1458:	08 95       	ret

0000145a <clrscr>:
    145a:	8b e1       	ldi	r24, 0x1B	; 27
    145c:	0e 94 24 08 	call	0x1048	; 0x1048 <UART0_putchar>
    1460:	8b e5       	ldi	r24, 0x5B	; 91
    1462:	0e 94 24 08 	call	0x1048	; 0x1048 <UART0_putchar>
    1466:	82 e3       	ldi	r24, 0x32	; 50
    1468:	0e 94 24 08 	call	0x1048	; 0x1048 <UART0_putchar>
    146c:	8a e4       	ldi	r24, 0x4A	; 74
    146e:	0e 94 24 08 	call	0x1048	; 0x1048 <UART0_putchar>
    1472:	08 95       	ret

00001474 <TextSave>:
    1474:	cf 93       	push	r28
    1476:	df 93       	push	r29
    1478:	ec 01       	movw	r28, r24
    147a:	10 92 70 06 	sts	0x0670, r1
    147e:	2a c0       	rjmp	.+84     	; 0x14d4 <TextSave+0x60>
    1480:	0e 94 3f 08 	call	0x107e	; 0x107e <UART0_getche>
    1484:	68 2f       	mov	r22, r24
    1486:	80 91 70 06 	lds	r24, 0x0670
    148a:	68 30       	cpi	r22, 0x08	; 8
    148c:	a9 f4       	brne	.+42     	; 0x14b8 <TextSave+0x44>
    148e:	88 23       	and	r24, r24
    1490:	09 f1       	breq	.+66     	; 0x14d4 <TextSave+0x60>
    1492:	63 e0       	ldi	r22, 0x03	; 3
    1494:	8e 5f       	subi	r24, 0xFE	; 254
    1496:	0e 94 fc 09 	call	0x13f8	; 0x13f8 <gotoxy>
    149a:	80 e2       	ldi	r24, 0x20	; 32
    149c:	0e 94 24 08 	call	0x1048	; 0x1048 <UART0_putchar>
    14a0:	80 91 70 06 	lds	r24, 0x0670
    14a4:	63 e0       	ldi	r22, 0x03	; 3
    14a6:	8e 5f       	subi	r24, 0xFE	; 254
    14a8:	0e 94 fc 09 	call	0x13f8	; 0x13f8 <gotoxy>
    14ac:	80 91 70 06 	lds	r24, 0x0670
    14b0:	81 50       	subi	r24, 0x01	; 1
    14b2:	80 93 70 06 	sts	0x0670, r24
    14b6:	0e c0       	rjmp	.+28     	; 0x14d4 <TextSave+0x60>
    14b8:	e8 2f       	mov	r30, r24
    14ba:	f0 e0       	ldi	r31, 0x00	; 0
    14bc:	e7 59       	subi	r30, 0x97	; 151
    14be:	f9 4f       	sbci	r31, 0xF9	; 249
    14c0:	60 83       	st	Z, r22
    14c2:	ce 01       	movw	r24, r28
    14c4:	0e 94 cc 09 	call	0x1398	; 0x1398 <EEPROM_Write>
    14c8:	80 91 70 06 	lds	r24, 0x0670
    14cc:	8f 5f       	subi	r24, 0xFF	; 255
    14ce:	80 93 70 06 	sts	0x0670, r24
    14d2:	21 96       	adiw	r28, 0x01	; 1
    14d4:	80 91 70 06 	lds	r24, 0x0670
    14d8:	86 30       	cpi	r24, 0x06	; 6
    14da:	90 f2       	brcs	.-92     	; 0x1480 <TextSave+0xc>
    14dc:	0e 94 36 08 	call	0x106c	; 0x106c <UART0_getch>
    14e0:	df 91       	pop	r29
    14e2:	cf 91       	pop	r28
    14e4:	08 95       	ret

000014e6 <__udivmodqi4>:
    14e6:	99 1b       	sub	r25, r25
    14e8:	79 e0       	ldi	r23, 0x09	; 9
    14ea:	04 c0       	rjmp	.+8      	; 0x14f4 <__udivmodqi4_ep>

000014ec <__udivmodqi4_loop>:
    14ec:	99 1f       	adc	r25, r25
    14ee:	96 17       	cp	r25, r22
    14f0:	08 f0       	brcs	.+2      	; 0x14f4 <__udivmodqi4_ep>
    14f2:	96 1b       	sub	r25, r22

000014f4 <__udivmodqi4_ep>:
    14f4:	88 1f       	adc	r24, r24
    14f6:	7a 95       	dec	r23
    14f8:	c9 f7       	brne	.-14     	; 0x14ec <__udivmodqi4_loop>
    14fa:	80 95       	com	r24
    14fc:	08 95       	ret

000014fe <__divmodhi4>:
    14fe:	97 fb       	bst	r25, 7
    1500:	09 2e       	mov	r0, r25
    1502:	07 26       	eor	r0, r23
    1504:	0a d0       	rcall	.+20     	; 0x151a <__divmodhi4_neg1>
    1506:	77 fd       	sbrc	r23, 7
    1508:	04 d0       	rcall	.+8      	; 0x1512 <__divmodhi4_neg2>
    150a:	0c d0       	rcall	.+24     	; 0x1524 <__udivmodhi4>
    150c:	06 d0       	rcall	.+12     	; 0x151a <__divmodhi4_neg1>
    150e:	00 20       	and	r0, r0
    1510:	1a f4       	brpl	.+6      	; 0x1518 <__divmodhi4_exit>

00001512 <__divmodhi4_neg2>:
    1512:	70 95       	com	r23
    1514:	61 95       	neg	r22
    1516:	7f 4f       	sbci	r23, 0xFF	; 255

00001518 <__divmodhi4_exit>:
    1518:	08 95       	ret

0000151a <__divmodhi4_neg1>:
    151a:	f6 f7       	brtc	.-4      	; 0x1518 <__divmodhi4_exit>
    151c:	90 95       	com	r25
    151e:	81 95       	neg	r24
    1520:	9f 4f       	sbci	r25, 0xFF	; 255
    1522:	08 95       	ret

00001524 <__udivmodhi4>:
    1524:	aa 1b       	sub	r26, r26
    1526:	bb 1b       	sub	r27, r27
    1528:	51 e1       	ldi	r21, 0x11	; 17
    152a:	07 c0       	rjmp	.+14     	; 0x153a <__udivmodhi4_ep>

0000152c <__udivmodhi4_loop>:
    152c:	aa 1f       	adc	r26, r26
    152e:	bb 1f       	adc	r27, r27
    1530:	a6 17       	cp	r26, r22
    1532:	b7 07       	cpc	r27, r23
    1534:	10 f0       	brcs	.+4      	; 0x153a <__udivmodhi4_ep>
    1536:	a6 1b       	sub	r26, r22
    1538:	b7 0b       	sbc	r27, r23

0000153a <__udivmodhi4_ep>:
    153a:	88 1f       	adc	r24, r24
    153c:	99 1f       	adc	r25, r25
    153e:	5a 95       	dec	r21
    1540:	a9 f7       	brne	.-22     	; 0x152c <__udivmodhi4_loop>
    1542:	80 95       	com	r24
    1544:	90 95       	com	r25
    1546:	bc 01       	movw	r22, r24
    1548:	cd 01       	movw	r24, r26
    154a:	08 95       	ret

0000154c <_exit>:
    154c:	ff cf       	rjmp	.-2      	; 0x154c <_exit>
